Microchip MPLAB XC8 Compiler V1.34 ()

Linker command line:

--edf=C:\Program Files (x86)\Microchip\xc8\v1.34\dat\en_msgs.txt -cs \
  -h+dist/xc8_pic18f4685/debug\Smart_Rf_PIC.debug.sym \
  --cmf=dist/xc8_pic18f4685/debug\Smart_Rf_PIC.debug.cmf -z -Q18F4685 \
  -oC:\Users\DWHITF~1.TDY\AppData\Local\Temp\s940.6 \
  -Mdist/xc8_pic18f4685/debug/Smart_Rf_PIC.debug.map -E1 -ver=XC8 \
  -ASTACK=0564h-0ceeh -pstack=STACK -ACODE=00h-017CFFh -ACONST=00h-017CFFh \
  -ASMALLCONST=0D00h-0DFFhx368 -AMEDIUMCONST=0D00h-0FFFFh,010D00h-017CFFh \
  -ACOMRAM=01h-05Fh -AABS1=00h-0CEEh -ABIGRAM=01h-0CEEh \
  -ARAM=060h-0FFh,0100h-01FFhx11,0C00h-0CEEh -ABANK0=060h-0FFh \
  -ABANK1=0100h-01FFh -ABANK2=0200h-02FFh -ABANK3=0300h-03FFh \
  -ABANK4=0400h-04FFh -ABANK5=0500h-05FFh -ABANK6=0600h-06FFh \
  -ABANK7=0700h-07FFh -ABANK8=0800h-08FFh -ABANK9=0900h-09FFh \
  -ABANK10=0A00h-0AFFh -ABANK11=0B00h-0BFFh -ABANK12=0C00h-0CEEh \
  -ASFR=0D00h-0DFFhx2,0F00h-0F5Fh,0F60h-0F9Bh,0F9Dh-0FD3h,0FD5h-0FDAh,0FE0h-0FE2h,0FE8h-0FEAh,0FF0h-0FFBh \
  -preset_vec=00h,intcode=08h,intcodelo=018h,powerup,init,end_init \
  -pramtop=0D00h -psmallconst=SMALLCONST -pmediumconst=MEDIUMCONST \
  -pconst=CONST -AFARRAM=00h-00h -ACONFIG=0300000h-030000Dh -pconfig=CONFIG \
  -AIDLOC=0200000h-0200007h -pidloc=IDLOC -AEEDATA=0F00000h-0F003FFh \
  -peeprom_data=EEDATA \
  -prdata=COMRAM,nvrram=COMRAM,nvbit=COMRAM,rbss=COMRAM,rbit=COMRAM \
  -pfarbss=FARRAM,fardata=FARRAM,nvFARRAM=FARRAM \
  -pintsave_regs=BIGRAM,bigbss=BIGRAM,bigdata=BIGRAM -pbss=RAM \
  -pidata=CODE,irdata=CODE,ibigdata=CODE,ifardata=CODE -pparam1=BANK1 \
  C:\Users\DWHITF~1.TDY\AppData\Local\Temp\s940.obj \
  dist/xc8_pic18f4685/debug\Smart_Rf_PIC.debug.obj 

Object code version is 3.11

Machine type is 18F4685

Call graph: (short form)




                Name                               Link     Load   Length Selector   Space Scale
C:\Users\DWHITF~1.TDY\AppData\Local\Temp\s940.obj
                end_init                            4E8      4E8        4        C       0
                reset_vec                             0        0        6        0       0
                idloc                            200000   200000        8   200000       0
                config                           300000   300000        E   300000       0
dist/xc8_pic18f4685/debug\Smart_Rf_PIC.debug.obj
                intcodelo                            18       18      4D0        C       0
                intcode                               8        8       10        4       0
                mediumconst                        ECC0     ECC0     1340     7660       0
                intcode_body                      17BF0    17BF0       66     8000       0
                text136                           140F0    140F0      35E     8000       0
                text135                             E02      E02       18        C       0
                text134                             750      750       4E        C       0
                text133                             C94      C94       2E        C       0
                text132                           1679A    1679A       C8     8000       0
                text131                             E72      E72       16        C       0
                text130                             F2E      F2E        E        C       0
                text129                           17968    17968       70     8000       0
                text128                             C66      C66       2E        C       0
                text127                             F78      F78        8        C       0
                text126                             97C      97C       3E        C       0
                text125                           13D4A    13D4A      3A6     8000       0
                text124                             F5E      F5E        A        C       0
                text123                             F20      F20        E        C       0
                text122                             BA6      BA6       32        C       0
                text121                           161A2    161A2       EE     8000       0
                text120                             E5C      E5C       16        C       0
                text119                             AA2      AA2       38        C       0
                text118                           16C08    16C08       B2     8000       0
                text117                           15EC6    15EC6       FA     8000       0
                text116                           16928    16928       BE     8000       0
                text115                             E46      E46       16        C       0
                text114                             D18      D18       2A        C       0
                text113                           170AA    170AA       9E     8000       0
                text112                             7EA      7EA       4C        C       0
                text111                           17806    17806       78     8000       0
                text110                           171E2    171E2       96     8000       0
                text109                           15CCE    15CCE       FE     8000       0
                text108                           16EBC    16EBC       A6     8000       0
                text107                             F12      F12        E        C       0
                text106                             B74      B74       32        C       0
                text105                           17CBA    17CBA       42     8000       0
                text103                             EC4      EC4       12        C       0
                text102                           17714    17714       7A     8000       0
                text101                           14B64    14B64      1D6     8000       0
                text100                             DCA      DCA       1E        C       0
                text99                            17C56    17C56       64     8000       0
                text98                            17398    17398       8C     8000       0
                text97                            17006    17006       A4     8000       0
                text96                            17B86    17B86       6A     8000       0
                text95                              608      608       5A        C       0
                text94                            169E6    169E6       BC     8000       0
                text93                              F54      F54        A        C       0
                text92                              F48      F48        C        C       0
                text91                            1497A    1497A      1EA     8000       0
                text90                            17AB0    17AB0       6C     8000       0
                text89                              B42      B42       32        C       0
                text88                            160B2    160B2       F0     8000       0
                text87                              DE8      DE8       1A        C       0
                text86                            1778E    1778E       78     8000       0
                text85                              93E      93E       3E        C       0
                text84                              9F6      9F6       3C        C       0
                text83                            133AA    133AA      4D2     8000       0
                text82                              D8A      D8A       22        C       0
                text81                              4EC      4EC       62        C       0
                text80                              EB0      EB0       14        C       0
                text79                            17A44    17A44       6C     8000       0
                text78                            15BC6    15BC6      108     8000       0
                text77                              D66      D66       24        C       0
                text76                              702      702       4E        C       0
                text75                              D42      D42       24        C       0
                text74                            16290    16290       EA     8000       0
                text73                            17148    17148       9A     8000       0
                text72                            16604    16604       CE     8000       0
                text71                            16534    16534       D0     8000       0
                text70                            16AA2    16AA2       B4     8000       0
                text69                            1444E    1444E      2A4     8000       0
                text68                            1769A    1769A       7A     8000       0
                text67                            17620    17620       7A     8000       0
                text66                            175A6    175A6       7A     8000       0
                text65                            1645A    1645A       DA     8000       0
                text64                              8FE      8FE       40        C       0
                text63                              8BE      8BE       40        C       0
                text62                            17424    17424       84     8000       0
                text61                            1787E    1787E       76     8000       0
                text60                              B0E      B0E       34        C       0
                text59                            16862    16862       C6     8000       0
                text58                              F04      F04        E        C       0
                text57                            151C8    151C8      16A     8000       0
                text56                              9BA      9BA       3C        C       0
                text55                            15332    15332      156     8000       0
                text54                              E30      E30       16        C       0
                text53                              87E      87E       40        C       0
                text52                            1637A    1637A       E0     8000       0
                text51                              DAC      DAC       1E        C       0
                text50                              ADA      ADA       34        C       0
                text49                            178F4    178F4       74     8000       0
                text48                            16F62    16F62       A4     8000       0
                text47                              A6A      A6A       38        C       0
                text46                              C38      C38       2E        C       0
                text45                            1270C    1270C      C9E     8000       0
                text44                            146F2    146F2      288     8000       0
                text43                            15AA6    15AA6      120     8000       0
                text42                            155DA    155DA      152     8000       0
                text41                            1505C    1505C      16C     8000       0
                text40                            15488    15488      152     8000       0
                text39                              C08      C08       30        C       0
                text38                            166D2    166D2       C8     8000       0
                text37                            16B56    16B56       B2     8000       0
                text36                            15FC0    15FC0       F2     8000       0
                text35                            17278    17278       94     8000       0
                text34                            14D3A    14D3A      1B2     8000       0
                text33                            174A8    174A8       80     8000       0
                text32                            17528    17528       7E     8000       0
                text31                            179D8    179D8       6C     8000       0
                text30                              CC2      CC2       2C        C       0
                text29                            1730C    1730C       8C     8000       0
                text28                            10000    10000     270C     8000       0
                text27                              F70      F70        8        C       0
                text26                              F3C      F3C        C        C       0
                text25                            16E16    16E16       A6     8000       0
                text24                              5AC      5AC       5C        C       0
                text23                              E9C      E9C       14        C       0
                text22                            1585A    1585A      12C     8000       0
                text21                              662      662       52        C       0
                text20                              BD8      BD8       30        C       0
                text19                            1572C    1572C      12E     8000       0
                text18                              79E      79E       4C        C       0
                text17                            17B1C    17B1C       6A     8000       0
                text16                              EE6      EE6       10        C       0
                text15                            14EEC    14EEC      170     8000       0
                text14                            15DCC    15DCC       FA     8000       0
                text13                            16CBA    16CBA       B0     8000       0
                text12                              CEE      CEE       2A        C       0
                text11                              6B4      6B4       4E        C       0
                text10                              A32      A32       38        C       0
                text9                               EF6      EF6        E        C       0
                text8                               F84      F84        4        C       0
                text7                               54E      54E       5E        C       0
                text6                               F80      F80        4        C       0
                text5                               E1A      E1A       16        C       0
                text4                               836      836       48        C       0
                text3                               F68      F68        8        C       0
                text2                               ED6      ED6       10        C       0
                text1                             15986    15986      120     8000       0
                text0                             1387C    1387C      4CE     8000       0
                cstackCOMRAM                          1        1       4E        1       1
                cstackBANK0                          60       60       8E       60       1
                cstackBANK1                         100      100       8A      100       1
                cstackBANK2                         200      200       E5      200       1
                bssBANK5                            500      500       64      500       1
                bssBANK4                            400      400       F4      400       1
                dataBANK3                           3A4      3A4       14      300       1
                bssBANK3                            300      300       A4      300       1
                bssBANK2                            2E5      2E5       10      200       1
                dataBANK1                           1EE      1EE        2      100       1
                bssBANK1                            18A      18A       64      100       1
                bssBANK0                             EE       EE        B       60       1
                dataCOMRAM                           4F       4F        4        1       1
                bssCOMRAM                            53       53        3        1       1
                cinit                             16D6A    16D6A       AC     8000       0
                idataBANK3                          E88      E88       14        C       0
                idataBANK1                          F88      F88        2        C       0
                idataCOMRAM                       17CFC    17CFC        4     8000       0

TOTAL           Name                               Link     Load   Length     Space
        CLASS   STACK          

        CLASS   CODE           
                end_init                            4E8      4E8        4         0
                intcodelo                            18       18      4D0         0
                intcode                               8        8       10         0
                reset_vec                             0        0        6         0
                intcode_body                      17BF0    17BF0       66         0
                text136                           140F0    140F0      35E         0
                text135                             E02      E02       18         0
                text134                             750      750       4E         0
                text133                             C94      C94       2E         0
                text132                           1679A    1679A       C8         0
                text131                             E72      E72       16         0
                text130                             F2E      F2E        E         0
                text129                           17968    17968       70         0
                text128                             C66      C66       2E         0
                text127                             F78      F78        8         0
                text126                             97C      97C       3E         0
                text125                           13D4A    13D4A      3A6         0
                text124                             F5E      F5E        A         0
                text123                             F20      F20        E         0
                text122                             BA6      BA6       32         0
                text121                           161A2    161A2       EE         0
                text120                             E5C      E5C       16         0
                text119                             AA2      AA2       38         0
                text118                           16C08    16C08       B2         0
                text117                           15EC6    15EC6       FA         0
                text116                           16928    16928       BE         0
                text115                             E46      E46       16         0
                text114                             D18      D18       2A         0
                text113                           170AA    170AA       9E         0
                text112                             7EA      7EA       4C         0
                text111                           17806    17806       78         0
                text110                           171E2    171E2       96         0
                text109                           15CCE    15CCE       FE         0
                text108                           16EBC    16EBC       A6         0
                text107                             F12      F12        E         0
                text106                             B74      B74       32         0
                text105                           17CBA    17CBA       42         0
                text103                             EC4      EC4       12         0
                text102                           17714    17714       7A         0
                text101                           14B64    14B64      1D6         0
                text100                             DCA      DCA       1E         0
                text99                            17C56    17C56       64         0
                text98                            17398    17398       8C         0
                text97                            17006    17006       A4         0
                text96                            17B86    17B86       6A         0
                text95                              608      608       5A         0
                text94                            169E6    169E6       BC         0
                text93                              F54      F54        A         0
                text92                              F48      F48        C         0
                text91                            1497A    1497A      1EA         0
                text90                            17AB0    17AB0       6C         0
                text89                              B42      B42       32         0
                text88                            160B2    160B2       F0         0
                text87                              DE8      DE8       1A         0
                text86                            1778E    1778E       78         0
                text85                              93E      93E       3E         0
                text84                              9F6      9F6       3C         0
                text83                            133AA    133AA      4D2         0
                text82                              D8A      D8A       22         0
                text81                              4EC      4EC       62         0
                text80                              EB0      EB0       14         0
                text79                            17A44    17A44       6C         0
                text78                            15BC6    15BC6      108         0
                text77                              D66      D66       24         0
                text76                              702      702       4E         0
                text75                              D42      D42       24         0
                text74                            16290    16290       EA         0
                text73                            17148    17148       9A         0
                text72                            16604    16604       CE         0
                text71                            16534    16534       D0         0
                text70                            16AA2    16AA2       B4         0
                text69                            1444E    1444E      2A4         0
                text68                            1769A    1769A       7A         0
                text67                            17620    17620       7A         0
                text66                            175A6    175A6       7A         0
                text65                            1645A    1645A       DA         0
                text64                              8FE      8FE       40         0
                text63                              8BE      8BE       40         0
                text62                            17424    17424       84         0
                text61                            1787E    1787E       76         0
                text60                              B0E      B0E       34         0
                text59                            16862    16862       C6         0
                text58                              F04      F04        E         0
                text57                            151C8    151C8      16A         0
                text56                              9BA      9BA       3C         0
                text55                            15332    15332      156         0
                text54                              E30      E30       16         0
                text53                              87E      87E       40         0
                text52                            1637A    1637A       E0         0
                text51                              DAC      DAC       1E         0
                text50                              ADA      ADA       34         0
                text49                            178F4    178F4       74         0
                text48                            16F62    16F62       A4         0
                text47                              A6A      A6A       38         0
                text46                              C38      C38       2E         0
                text45                            1270C    1270C      C9E         0
                text44                            146F2    146F2      288         0
                text43                            15AA6    15AA6      120         0
                text42                            155DA    155DA      152         0
                text41                            1505C    1505C      16C         0
                text40                            15488    15488      152         0
                text39                              C08      C08       30         0
                text38                            166D2    166D2       C8         0
                text37                            16B56    16B56       B2         0
                text36                            15FC0    15FC0       F2         0
                text35                            17278    17278       94         0
                text34                            14D3A    14D3A      1B2         0
                text33                            174A8    174A8       80         0
                text32                            17528    17528       7E         0
                text31                            179D8    179D8       6C         0
                text30                              CC2      CC2       2C         0
                text29                            1730C    1730C       8C         0
                text28                            10000    10000     270C         0
                text27                              F70      F70        8         0
                text26                              F3C      F3C        C         0
                text25                            16E16    16E16       A6         0
                text24                              5AC      5AC       5C         0
                text23                              E9C      E9C       14         0
                text22                            1585A    1585A      12C         0
                text21                              662      662       52         0
                text20                              BD8      BD8       30         0
                text19                            1572C    1572C      12E         0
                text18                              79E      79E       4C         0
                text17                            17B1C    17B1C       6A         0
                text16                              EE6      EE6       10         0
                text15                            14EEC    14EEC      170         0
                text14                            15DCC    15DCC       FA         0
                text13                            16CBA    16CBA       B0         0
                text12                              CEE      CEE       2A         0
                text11                              6B4      6B4       4E         0
                text10                              A32      A32       38         0
                text9                               EF6      EF6        E         0
                text8                               F84      F84        4         0
                text7                               54E      54E       5E         0
                text6                               F80      F80        4         0
                text5                               E1A      E1A       16         0
                text4                               836      836       48         0
                text3                               F68      F68        8         0
                text2                               ED6      ED6       10         0
                text1                             15986    15986      120         0
                text0                             1387C    1387C      4CE         0
                cinit                             16D6A    16D6A       AC         0
                idataBANK3                          E88      E88       14         0
                idataBANK1                          F88      F88        2         0
                idataCOMRAM                       17CFC    17CFC        4         0

        CLASS   CONST          

        CLASS   SMALLCONST     

        CLASS   MEDIUMCONST    
                mediumconst                        ECC0     ECC0     1340         0

        CLASS   COMRAM         
                cstackCOMRAM                          1        1       4E         1
                dataCOMRAM                           4F       4F        4         1
                bssCOMRAM                            53       53        3         1

        CLASS   ABS1           

        CLASS   BIGRAM         

        CLASS   RAM            

        CLASS   BANK0          
                cstackBANK0                          60       60       8E         1
                bssBANK0                             EE       EE        B         1

        CLASS   BANK1          
                cstackBANK1                         100      100       8A         1
                dataBANK1                           1EE      1EE        2         1
                bssBANK1                            18A      18A       64         1

        CLASS   BANK2          
                cstackBANK2                         200      200       E5         1
                bssBANK2                            2E5      2E5       10         1

        CLASS   BANK3          
                dataBANK3                           3A4      3A4       14         1
                bssBANK3                            300      300       A4         1

        CLASS   BANK4          
                bssBANK4                            400      400       F4         1

        CLASS   BANK5          
                bssBANK5                            500      500       64         1

        CLASS   BANK6          

        CLASS   BANK7          

        CLASS   BANK8          

        CLASS   BANK9          

        CLASS   BANK10         

        CLASS   BANK11         

        CLASS   BANK12         

        CLASS   SFR            

        CLASS   FARRAM         

        CLASS   CONFIG         
                config                           300000   300000        E         0

        CLASS   IDLOC          
                idloc                            200000   200000        8         0

        CLASS   EEDATA         



SEGMENTS        Name                           Load    Length   Top    Selector   Space  Class

                reset_vec                      000000  000006  000006         0       0  CODE    
                cstackCOMRAM                   000001  000055  000056         1       1  COMRAM  
                intcode                        000008  000010  000018         4       0  CODE    
                intcodelo                      000018  000F72  000F8A         C       0  CODE    
                cstackBANK0                    000060  000099  0000F9        60       1  BANK0   
                cstackBANK1                    000100  0000F0  0001F0       100       1  BANK1   
                cstackBANK2                    000200  0000F5  0002F5       200       1  BANK2   
                bssBANK3                       000300  0000B8  0003B8       300       1  BANK3   
                bssBANK4                       000400  0000F4  0004F4       400       1  BANK4   
                bssBANK5                       000500  000064  000564       500       1  BANK5   
                mediumconst                    00ECC0  001340  010000      7660       0  MEDIUMCO
                text28                         010000  007D00  017D00      8000       0  CODE    
                idloc                          200000  000008  200008    200000       0  IDLOC   
                config                         300000  00000E  30000E    300000       0  CONFIG  


UNUSED ADDRESS RANGES

        Name                Unused          Largest block    Delta
        BANK0            0000F9-0000FF                7
        BANK1            0001F0-0001FF               10
        BANK10           000A00-000AFF              100
        BANK11           000B00-000BFF              100
        BANK12           000C00-000CEE               EF
        BANK2            0002F5-0002FF                B
        BANK3            0003B8-0003FF               48
        BANK4            0004F4-0004FF                C
        BANK5            000564-0005FF               9C
        BANK6            000600-0006FF              100
        BANK7            000700-0007FF              100
        BANK8            000800-0008FF              100
        BANK9            000900-0009FF              100
        BIGRAM           000056-00005F                A
                         0000F9-0000FF                7
                         0001F0-0001FF               10
                         0002F5-0002FF                B
                         0003B8-0003FF               48
                         0004F4-0004FF                C
                         000564-000CEE              78B
        CODE             000006-000007                2
                         000F8A-00ECBF             DD36
        COMRAM           000056-00005F                A
        CONST            000006-000007                2
                         000F8A-00ECBF             DD36
        EEDATA           F00000-F003FF              400
        MEDIUMCONST      000F8A-00ECBF             DD36
        RAM              0000F9-0000FF                7
                         0001F0-0001FF               10
                         0002F5-0002FF                B
                         0003B8-0003FF               48
                         0004F4-0004FF                C
                         000564-000CEE              100
        SFR              000D00-000F9B              100
                         000F9D-000FD3               37
                         000FD5-000FDA                6
                         000FE0-000FE2                3
                         000FE8-000FEA                3
                         000FF0-000FFB                C
        SMALLCONST       000F8A-00ECBF              100
        STACK            000564-000CEE              78B

                                  Symbol Table

?_GetBaud                              cstackBANK1  00010E
?_GetEEPROM                            cstackBANK1  000132
?_GetEnteredNumber                     cstackBANK1  00011A
?_GetMemoryBaud                        cstackBANK1  000111
?_GetMemoryChar                        cstackBANK1  000111
?_GetMemoryLong                        cstackBANK1  000111
?_I2C_Read_At_Address                  cstackBANK1  000110
?_InternalADC_Read                     cstackBANK1  00011D
?_ReadEEPROM_1Byte                     cstackBANK1  00010E
?_SetEEPROM                            cstackBANK1  000143
?___aldiv                              cstackBANK1  000114
?___awdiv                              cstackBANK1  00010E
?___awmod                              cstackBANK1  00010E
?___ftdiv                              cstackBANK1  00011A
?___ftmul                              cstackBANK1  000129
?___ftpack                             cstackBANK1  00010E
?___fttol                              cstackBANK1  000138
?___lbtoft                             cstackBANK1  000116
?___lldiv                              cstackBANK1  00010E
?___llmod                              cstackBANK1  00011B
?___lmul                               cstackBANK1  00010E
?___lwmod                              cstackBANK1  00010E
?___lwtoft                             cstackBANK1  000116
?___wmul                               cstackBANK1  00010E
?_sprintf                              cstackBANK1  000124
?i1_GetMemoryBaud                      cstackCOMRAM 000004
?i1_GetMemoryLong                      cstackCOMRAM 000004
?i1_ReadEEPROM_1Byte                   cstackCOMRAM 000001
?i1_SetEEPROM                          cstackCOMRAM 000036
BufferCopy@count                       cstackBANK1  00011A
BufferCopy@from                        cstackBANK1  000116
BufferCopy@i                           cstackBANK1  00011C
BufferCopy@shift                       cstackBANK1  00011B
BufferCopy@to                          cstackBANK1  000118
CheckSum_byte@Odd_Even                 cstackBANK1  000110
CheckSum_byte@Parity                   cstackBANK1  000113
CheckSum_byte@This                     cstackBANK1  00010E
CheckSum_byte@ThisTemp                 cstackBANK1  000111
CheckSum_byte@i                        cstackBANK1  000114
Command@ADC_Value                      cstackBANK2  0002C8
Command@BAUDtemp                       cstackBANK2  0002CE
Command@Input                          cstackBANK1  000188
Command@PARITYtemp                     cstackBANK2  0002D4
Command@RTC_Battery_Value              cstackBANK2  0002CA
Command@RTC_Battery_Value_HIGH_decimal cstackBANK2  0002CC
Command@RTC_Battery_Value_LOW_decimal  cstackBANK2  0002D2
Command@buf                            cstackBANK2  000200
Command@channel                        cstackBANK2  0002DA
Command@contrast                       cstackBANK2  0002D8
Command@duty                           cstackBANK2  0002DC
Command@tempLONG                       cstackBANK2  0002DE
EnableInternalADC@channels             cstackBANK1  00010F
EnableInternalADC@config               cstackBANK1  00010E
GetEEPROM@Temp                         cstackBANK1  00013B
GetEnteredNumber@This                  cstackBANK1  00011A
GetEnteredNumber@i                     cstackBANK1  000123
GetEnteredNumber@negative              cstackBANK1  000124
GetEnteredNumber@temp                  cstackBANK1  000125
GetMemoryBaud@BaudTempH                cstackBANK1  00012D
GetMemoryBaud@BaudTempL                cstackBANK1  000130
GetMemoryBaud@BaudTempMH               cstackBANK1  00012E
GetMemoryBaud@BaudTempML               cstackBANK1  00012F
GetMemoryBaud@baud                     cstackBANK1  000129
GetMemoryChar@AddressFirst             cstackBANK1  000115
GetMemoryChar@H                        cstackBANK1  000116
GetMemoryLong@AddressFirst             cstackBANK1  000131
GetMemoryLong@H                        cstackBANK1  00012D
GetMemoryLong@L                        cstackBANK1  000130
GetMemoryLong@MH                       cstackBANK1  00012E
GetMemoryLong@ML                       cstackBANK1  00012F
GetMemoryLong@temp                     cstackBANK1  000129
GetMemoryParity@Parity                 cstackBANK1  000111
I2C_Read_At_Address@I2Caddress         cstackBANK1  000112
I2C_Read_At_Address@Register           cstackBANK1  000110
I2C_Read_Sequential@I2Caddress         cstackBANK1  000115
I2C_Read_Sequential@Register           cstackBANK1  000111
I2C_Read_Sequential@length             cstackBANK1  000114
I2C_Read_Sequential@rdptr              cstackBANK1  000112
I2C_Write_At_Address@I2Caddress        cstackBANK1  000114
I2C_Write_At_Address@Register          cstackBANK1  000110
I2C_Write_At_Address@data              cstackBANK1  000111
IRrawToNEC@Invert                      cstackCOMRAM 000005
IRrawToNEC@NEC                         cstackCOMRAM 000003
IRrawToNEC@NECtemp                     cstackCOMRAM 000008
IRrawToNEC@Pause                       cstackCOMRAM 00000C
IRrawToNEC@Raw                         cstackCOMRAM 000001
IRrawToNEC@StartBit                    cstackCOMRAM 00000F
IRrawToNEC@first                       cstackCOMRAM 00000D
IRrawToNEC@i                           cstackCOMRAM 00000E
ISNUMBER@ascii                         cstackBANK1  00010E
InitUART@Baud                          cstackBANK1  00011B
InitUART@baudconfig                    cstackBANK1  000126
InitUART@config                        cstackBANK1  000127
InitUART@parity                        cstackBANK1  00011F
InitUART@spbrg                         cstackBANK1  000124
InitUART@temp                          cstackBANK1  000128
Init_I2C_Master@baud                   cstackBANK1  000110
InternalADC_Read@channel               cstackBANK1  000121
IsPrintableASCII@data                  cstackCOMRAM 000001
LCDPrintChar@character                 cstackBANK1  00011C
LCDPrintString@Text                    cstackBANK1  00011C
LCDPrintString@c                       cstackBANK1  00011E
LCD_Scroll@This                        cstackBANK1  00011D
LCDdisplayFeedback@Text                cstackBANK1  000120
Multiple_I2C_Read@length               cstackBANK1  000110
Multiple_I2C_Read@rdptr                cstackBANK1  00010E
One_Config1@pin                        cstackBANK1  000118
One_Config2@pin                        cstackBANK1  000118
OpenI2C@slew                           cstackBANK1  00010E
OpenI2C@sync_mode                      cstackBANK1  00010F
OpenUSART@config                       cstackBANK1  000110
OpenUSART@spbrg                        cstackBANK1  00010E
Parse_Time@TempTime                    cstackBANK1  000112
Parse_Time@This                        cstackBANK1  00010E
Parse_Time@temp                        cstackBANK1  000111
READ_RTC_TIME@Error                    cstackBANK1  00011F
READ_RTC_TIME@temp                     cstackBANK1  000118
RTC_Clock_Enable@Error                 cstackBANK1  00011A
RTC_Clock_Enable@tempSeconds           cstackBANK1  000118
RTC_TIME_NONMilitary@Error             cstackBANK1  000119
RTC_TIME_NONMilitary@temphours         cstackBANK1  00011B
ReadEEPROM_1Byte@GIEstatus             cstackBANK1  000110
ReadEEPROM_1Byte@address               cstackBANK1  00010E
ReadUSART@data                         cstackBANK1  00010E
RemoveSpaces@That                      cstackBANK1  000120
RemoveSpaces@This                      cstackBANK1  00011D
RemoveSpaces@address                   cstackBANK1  000184
RemoveSpaces@i                         cstackBANK1  000186
SET_RTC_TIME@Error                     cstackBANK1  00012A
SET_RTC_TIME@SetTime                   cstackBANK1  000116
SET_RTC_TIME@temp                      cstackBANK1  000123
SendLCDbyte@LSB_nibble                 cstackBANK1  00011B
SendLCDbyte@MSB_nibble                 cstackBANK1  00011A
SendLCDbyte@data                       cstackBANK1  000119
SendLCDbyte@isCommand                  cstackBANK1  000118
Send_Config1@data                      cstackBANK1  000119
Send_Config1@i                         cstackBANK1  00011D
Send_Config1@pin                       cstackBANK1  00011E
Send_Config2@data                      cstackBANK1  000119
Send_Config2@i                         cstackBANK1  00011E
Send_Config2@pin                       cstackBANK1  00011D
SetBaud@Baud                           cstackBANK1  000150
SetBaud@Parity                         cstackBANK1  000154
SetBaud@buf                            cstackBANK1  000155
SetBaud@status                         cstackBANK1  000187
SetContrast@Duty                       cstackBANK1  00014E
SetContrast@LSB                        cstackBANK1  00014B
SetContrast@MSB                        cstackBANK1  00014A
SetContrast@temp                       cstackBANK1  00014C
SetContrast@tempPR2                    cstackBANK1  000147
SetDuty@Duty                           cstackBANK1  000147
SetDuty@LSB                            cstackBANK1  00014C
SetDuty@MSB                            cstackBANK1  00014B
SetDuty@temp                           cstackBANK1  00014D
SetDuty@tempPR2                        cstackBANK1  000148
SetEEPROM@Temp                         cstackBANK1  000143
SetEEPROM@burn                         cstackBANK1  00014C
SetEEPROM@fail                         cstackBANK1  000150
SetFreq@freq                           cstackBANK1  000122
SetFreq@temp                           cstackBANK1  000124
SetLCDcursor@Col                       cstackBANK1  00011C
SetLCDcursor@Row                       cstackBANK1  00011D
SetLCDcursor@address                   cstackBANK1  00011E
SetMemoryBaud@Baud                     cstackBANK1  000131
SetMemoryBaud@BaudTempH                cstackBANK1  00013D
SetMemoryBaud@BaudTempL                cstackBANK1  000140
SetMemoryBaud@BaudTempMH               cstackBANK1  00013E
SetMemoryBaud@BaudTempML               cstackBANK1  00013F
SetMemoryBaud@Test                     cstackBANK1  000139
SetMemoryLong@AddressFirst             cstackBANK1  000136
SetMemoryLong@Data                     cstackBANK1  000132
SetMemoryLong@H                        cstackBANK1  00013F
SetMemoryLong@L                        cstackBANK1  000142
SetMemoryLong@MH                       cstackBANK1  000140
SetMemoryLong@ML                       cstackBANK1  000141
SetMemoryLong@Test                     cstackBANK1  00013B
SetMemoryParity@Parity                 cstackBANK1  000113
SetMemoryParity@Test                   cstackBANK1  000112
SprintDate@DisplayTime                 cstackBANK1  000152
SprintDate@Military                    cstackBANK1  00015B
SprintDate@ReturnBuf                   cstackBANK1  000150
StartsWith@That                        cstackBANK1  000110
StartsWith@This                        cstackBANK1  00010E
StringAddEqual@Input                   cstackBANK1  00011D
StringAddEqual@firstnumber             cstackBANK1  000185
StringAddEqual@i                       cstackBANK1  000186
StringAddEqual@j                       cstackBANK1  000187
StringAddEqual@temp                    cstackBANK1  000121
StringContains@That                    cstackBANK1  000110
StringContains@This                    cstackBANK1  00010E
StringMatch@That                       cstackBANK1  000110
StringMatch@This                       cstackBANK1  00010E
SyncEEPROMandGLOBAL@Temp               cstackBANK1  000144
UARTchar@NinethBit_override            cstackBANK1  000115
UARTchar@NinethBit_override_data       cstackBANK1  000116
UARTchar@data                          cstackBANK1  000118
UARTstring@data                        cstackBANK1  000119
UARTstringWAIT@data                    cstackBANK1  000119
UseIRCode@Code                         cstackCOMRAM 000047
UseIRCode@NEC                          cstackCOMRAM 000049
UseIRCode@i                            cstackCOMRAM 00004E
WriteEEPROM_1Byte@GIEstatus            cstackBANK1  000111
WriteEEPROM_1Byte@address              cstackBANK1  00010E
WriteEEPROM_1Byte@data                 cstackBANK1  000110
WriteI2C@data_out                      cstackBANK1  00010F
Zero_Config1@pin                       cstackBANK1  000118
Zero_Config2@pin                       cstackBANK1  000118
_ADCON0                                (abs)        000FC2
_ADCON1                                (abs)        000FC1
_ADCON2                                (abs)        000FC0
_ADRESH                                (abs)        000FC4
_ADRESL                                (abs)        000FC3
_Aux2OFF                               mediumconst  00ED99
_Aux2ON                                mediumconst  00EDA9
_AuxOFF                                mediumconst  00EDB9
_AuxON                                 mediumconst  00EDC9
_BAUDCON                               (abs)        000FB8
_BedOFF                                mediumconst  00EDD9
_BedON                                 mediumconst  00EDE9
_BlueLEDcount                          dataBANK1    0001EE
_BufferCopy                            text94       0169E6
_CCP1CON                               (abs)        000FBD
_CCPR1L                                (abs)        000FBE
_CheckSum_byte                         text99       017C56
_ClearLCD                              text87       000DE8
_Command                               text28       010000
_ConfigureOscillator                   text27       000F70
_ContrastPWM_init                      text26       000F3C
_ECCP1CON                              (abs)        000FBA
_ECCPR1L                               (abs)        000FBB
_EEADR                                 (abs)        000FA9
_EEADRH                                (abs)        000FAA
_EECON1bits                            (abs)        000FA6
_EECON2                                (abs)        000FA7
_EEDATA                                (abs)        000FA8
_EEPROM_UNLOCK                         text54       000E30
_EnableInternalADC                     text25       016E16
_GetBaud                               text103      000EC4
_GetEEPROM                             text11       0006B4
_GetEnteredNumber                      text101      014B64
_GetMemoryBaud                         text55       015332
_GetMemoryChar                         text12       000CEE
_GetMemoryLong                         text15       014EEC
_GetMemoryParity                       text51       000DAC
_Global                                bssBANK1     00018A
_I2C_Read_At_Address                   text19       01572C
_I2C_Read_Sequential                   text78       015BC6
_I2C_Write_At_Address                  text72       016604
_INTCON2bits                           (abs)        000FF1
_INTCONbits                            (abs)        000FF2
_IPR1bits                              (abs)        000F9F
_IRRawCode                             bssBANK4     000464
_IR_NEC                                bssBANK0     0000F4
_IR_New_Code                           bssBANK0     0000F8
_IRfault                               bssCOMRAM    000053
_IRpinOLD                              bssBANK0     0000F0
_IRrawCodeNum                          bssBANK0     0000F1
_IRrawCount                            bssBANK0     0000EE
_IRrawToNEC                            text136      0140F0
_ISNUMBER                              text100      000DCA
_IdleI2C                               text80       000EB0
_InitApp                               text24       0005AC
_InitUART                              text57       0151C8
_Init_I2C_Master                       text76       000702
_InternalADC_Read                      text96       017B86
_IsPrintableASCII                      text135      000E02
_LATA                                  (abs)        000F89
_LATC                                  (abs)        000F8B
_LATD                                  (abs)        000F8C
_LATE                                  (abs)        000F8D
_LCDPrintChar                          text23       000E9C
_LCDPrintString                        text86       01778E
_LCDScreenUpdate                       text125      013D4A
_LCD_Scroll                            text91       01497A
_LCDclearCount                         dataCOMRAM   00004F
_LCDdisplayFeedback                    text84       0009F6
_LCDwait                               bssBANK1     00019C
_Multiple_I2C_Read                     text81       0004EC
_NowTime                               bssBANK1     000193
_OSCCON                                (abs)        000FD3
_One_Config1                           text68       01769A
_One_Config2                           text64       0008FE
_OpenI2C                               text77       000D66
_OpenUSART                             text61       01787E
_PIE1                                  (abs)        000F9D
_PIE1bits                              (abs)        000F9D
_PIR1bits                              (abs)        000F9E
_PIR2bits                              (abs)        000FA1
_PORTB                                 (abs)        000F81
_PR2                                   (abs)        000FCB
_PWM_init                              text20       000BD8
_Parse_Time                            text83       0133AA
_PulseEnablePin                        text89       000B42
_RCONbits                              (abs)        000FD0
_RCREG                                 (abs)        000FAE
_RCSTA                                 (abs)        000FAB
_RCSTAbits                             (abs)        000FAB
_READ_RTC_TIME                         text74       016290
_RTC_Clock_Enable                      text18       00079E
_RTC_INIT                              text16       000EE6
_RTC_TIME_NONMilitary                  text17       017B1C
_ReadButton1                           text123      000F20
_ReadEEPROM_1Byte                      text56       0009BA
_ReadIRpin                             text9        000EF6
_ReadUSART                             text60       000B0E
_RemoveSpaces                          text73       017148
_ResetI2C                              text75       000D42
_Reset_Timer0                          text124      000F5E
_Reset_Timer1                          text93       000F54
_Rxdata                                bssBANK3     000300
_SET_RTC_TIME                          text69       01444E
_SPBRG                                 (abs)        000FAF
_SPBRGH                                (abs)        000FB0
_SSPADD                                (abs)        000FC8
_SSPBUF                                (abs)        000FC9
_SSPCON1                               (abs)        000FC6
_SSPCON1bits                           (abs)        000FC6
_SSPCON2                               (abs)        000FC5
_SSPCON2bits                           (abs)        000FC5
_SSPSTAT                               (abs)        000FC7
_SSPSTATbits                           (abs)        000FC7
_ScrollDisplayPosition                 bssCOMRAM    000054
_ScrollFIFOCount                       bssCOMRAM    000055
_Scroll_1                              bssBANK1     00019E
_Scroll_10                             bssBANK3     000364
_Scroll_2                              bssBANK1     0001AE
_Scroll_3                              bssBANK1     0001BE
_Scroll_4                              bssBANK1     0001CE
_Scroll_5                              bssBANK1     0001DE
_Scroll_6                              bssBANK2     0002E5
_Scroll_7                              bssBANK3     000374
_Scroll_8                              bssBANK3     000384
_Scroll_9                              bssBANK3     000394
_SendLCDbyte                           text88       0160B2
_Send_Config1                          text65       01645A
_Send_Config2                          text62       017424
_SetBaud                               text44       0146F2
_SetContrast                           text38       0166D2
_SetDuty                               text37       016B56
_SetEEPROM                             text13       016CBA
_SetFreq                               text21       000662
_SetLCDcursor                          text85       00093E
_SetMemoryBaud                         text52       01637A
_SetMemoryLong                         text14       015DCC
_SetMemoryParity                       text50       000ADA
_SprintDate                            text36       015FC0
_Start_Timer0                          text8        000F84
_Start_Timer1                          text92       000F48
_StartsWith                            text35       017278
_Stop_Timer0                           text6        000F80
_Stop_Timer1                           text3        000F68
_StringAddEqual                        text34       014D3A
_StringContains                        text33       0174A8
_StringMatch                           text32       017528
_SubLightOFF                           mediumconst  00EDF9
_SubLightON                            mediumconst  00EE09
_SyncEEPROMandGLOBAL                   text10       000A32
_T0CONbits                             (abs)        000FD5
_T1CONbits                             (abs)        000FCD
_T2CON                                 (abs)        000FCA
_TMR0H                                 (abs)        000FD7
_TMR0L                                 (abs)        000FD6
_TMR1H                                 (abs)        000FCF
_TMR1L                                 (abs)        000FCE
_TRISAbits                             (abs)        000F92
_TRISBbits                             (abs)        000F93
_TRISCbits                             (abs)        000F94
_TRISDbits                             (abs)        000F95
_TRISEbits                             (abs)        000F96
_TXREG                                 (abs)        000FAD
_TXSTA                                 (abs)        000FAC
_TXSTAbits                             (abs)        000FAC
_TXToiletAlexBathroom                  mediumconst  00ED39
_TXToiletMyBathroom                    mediumconst  00ED45
_TX_OLD                                bssBANK0     0000F2
_TXdataBedroomCLOSED                   mediumconst  00ED51
_TXdataBedroomOPENED                   mediumconst  00ED5D
_TXdataD                               mediumconst  00EE39
_TXdataE                               mediumconst  00EE45
_TXdataF                               mediumconst  00EE51
_TXdataFrontCLOSED                     mediumconst  00ED69
_TXdataFrontOPENED                     mediumconst  00ED75
_TXdataLabCLOSED                       mediumconst  00ED81
_TXdataLabOPENED                       mediumconst  00ED8D
_Txdata                                bssBANK5     000500
_UARTchar                              text98       017398
_UARTstring                            text97       017006
_UARTstringWAIT                        text49       0178F4
_USART_Status                          bssBANK1     00019D
_UseIRCode                             text109      015CCE
_Version                               dataBANK3    0003A4
_WriteEEPROM_1Byte                     text53       00087E
_WriteI2C                              text79       017A44
_Zero_Config1                          text67       017620
_Zero_Config2                          text63       0008BE
__CFG_BBSIZ$1024                       (abs)        000000
__CFG_BOREN$BOHW                       (abs)        000000
__CFG_BORV$3                           (abs)        000000
__CFG_CP0$OFF                          (abs)        000000
__CFG_CP1$OFF                          (abs)        000000
__CFG_CP2$OFF                          (abs)        000000
__CFG_CP3$OFF                          (abs)        000000
__CFG_CP4$OFF                          (abs)        000000
__CFG_CP5$OFF                          (abs)        000000
__CFG_CPB$OFF                          (abs)        000000
__CFG_CPD$OFF                          (abs)        000000
__CFG_EBTR0$OFF                        (abs)        000000
__CFG_EBTR1$OFF                        (abs)        000000
__CFG_EBTR2$OFF                        (abs)        000000
__CFG_EBTR3$OFF                        (abs)        000000
__CFG_EBTR4$OFF                        (abs)        000000
__CFG_EBTR5$OFF                        (abs)        000000
__CFG_EBTRB$OFF                        (abs)        000000
__CFG_FCMEN$OFF                        (abs)        000000
__CFG_IESO$OFF                         (abs)        000000
__CFG_LPT1OSC$OFF                      (abs)        000000
__CFG_LVP$OFF                          (abs)        000000
__CFG_MCLRE$ON                         (abs)        000000
__CFG_OSC$HSPLL                        (abs)        000000
__CFG_PBADEN$ON                        (abs)        000000
__CFG_PWRT$ON                          (abs)        000000
__CFG_STVREN$ON                        (abs)        000000
__CFG_WDT$OFF                          (abs)        000000
__CFG_WDTPS$32768                      (abs)        000000
__CFG_WRT0$OFF                         (abs)        000000
__CFG_WRT1$OFF                         (abs)        000000
__CFG_WRT2$OFF                         (abs)        000000
__CFG_WRT3$OFF                         (abs)        000000
__CFG_WRT4$OFF                         (abs)        000000
__CFG_WRT5$OFF                         (abs)        000000
__CFG_WRTB$OFF                         (abs)        000000
__CFG_WRTC$OFF                         (abs)        000000
__CFG_WRTD$OFF                         (abs)        000000
__CFG_XINST$OFF                        (abs)        000000
__HRAM                                 (abs)        000000
__Habs1                                abs1         000000
__Hbank0                               bank0        000000
__Hbank1                               bank1        000000
__Hbank10                              bank10       000000
__Hbank11                              bank11       000000
__Hbank12                              bank12       000000
__Hbank2                               bank2        000000
__Hbank3                               bank3        000000
__Hbank4                               bank4        000000
__Hbank5                               bank5        000000
__Hbank6                               bank6        000000
__Hbank7                               bank7        000000
__Hbank8                               bank8        000000
__Hbank9                               bank9        000000
__Hbigbss                              bigbss       000000
__Hbigdata                             bigdata      000000
__Hbigram                              bigram       000000
__Hbss                                 bss          000000
__HbssBANK0                            bssBANK0     000000
__HbssBANK1                            bssBANK1     000000
__HbssBANK2                            bssBANK2     000000
__HbssBANK3                            bssBANK3     000000
__HbssBANK4                            bssBANK4     000000
__HbssBANK5                            bssBANK5     000000
__HbssCOMRAM                           bssCOMRAM    000000
__Hcinit                               cinit        000000
__Hclrtext                             clrtext      000000
__Hcomram                              comram       000000
__Hconfig                              config       30000E
__Hconst                               const        000000
__HcstackBANK0                         cstackBANK0  000000
__HcstackBANK1                         cstackBANK1  000000
__HcstackBANK2                         cstackBANK2  000000
__HcstackCOMRAM                        cstackCOMRAM 000000
__Hdata                                data         000000
__HdataBANK1                           dataBANK1    000000
__HdataBANK3                           dataBANK3    000000
__HdataCOMRAM                          dataCOMRAM   000000
__Heeprom_data                         eeprom_data  000000
__Hend_init                            end_init     0004EC
__Hfarbss                              farbss       000000
__Hfardata                             fardata      000000
__Hibigdata                            ibigdata     000000
__Hidata                               idata        000000
__HidataBANK1                          idataBANK1   000000
__HidataBANK3                          idataBANK3   000000
__HidataCOMRAM                         idataCOMRAM  000000
__Hidloc                               idloc        200008
__Hifardata                            ifardata     000000
__Hinit                                init         0004E8
__Hintcode                             intcode      000018
__Hintcode_body                        intcode_body 000000
__Hintcodelo                           intcodelo    0004E8
__Hintentry                            intentry     000000
__Hintret                              intret       000000
__Hintsave_regs                        intsave_regs 000000
__Hirdata                              irdata       000000
__Hmediumconst                         mediumconst  010000
__HnvFARRAM                            nvFARRAM     000000
__Hnvbit                               nvbit        000000
__Hnvrram                              nvrram       000000
__Hparam                               param1       000000
__Hparam1                              param1       000000
__Hpowerup                             powerup      0004E8
__Hram                                 ram          000000
__Hramtop                              ramtop       000D00
__Hrbit                                rbit         000000
__Hrbss                                rbss         000000
__Hrdata                               rdata        000000
__Hreset_vec                           reset_vec    000006
__Hsfr                                 sfr          000000
__Hsmallconst                          smallconst   000000
__Hspace_0                             (abs)        30000E
__Hspace_1                             (abs)        000564
__Hspace_2                             (abs)        000000
__Hstack                               stack        000000
__Hstruct                              struct       000000
__Htemp                                temp         000000
__Htext                                text         000000
__Htext0                               text0        000000
__Htext1                               text1        000000
__Htext10                              text10       000000
__Htext100                             text100      000000
__Htext101                             text101      000000
__Htext102                             text102      000000
__Htext103                             text103      000000
__Htext105                             text105      000000
__Htext106                             text106      000000
__Htext107                             text107      000000
__Htext108                             text108      000000
__Htext109                             text109      000000
__Htext11                              text11       000000
__Htext110                             text110      000000
__Htext111                             text111      000000
__Htext112                             text112      000000
__Htext113                             text113      000000
__Htext114                             text114      000000
__Htext115                             text115      000000
__Htext116                             text116      000000
__Htext117                             text117      000000
__Htext118                             text118      000000
__Htext119                             text119      000000
__Htext12                              text12       000000
__Htext120                             text120      000000
__Htext121                             text121      000000
__Htext122                             text122      000000
__Htext123                             text123      000000
__Htext124                             text124      000000
__Htext125                             text125      000000
__Htext126                             text126      000000
__Htext127                             text127      000000
__Htext128                             text128      000000
__Htext129                             text129      000000
__Htext13                              text13       000000
__Htext130                             text130      000000
__Htext131                             text131      000000
__Htext132                             text132      000000
__Htext133                             text133      000000
__Htext134                             text134      000000
__Htext135                             text135      000000
__Htext136                             text136      000000
__Htext14                              text14       000000
__Htext15                              text15       000000
__Htext16                              text16       000000
__Htext17                              text17       000000
__Htext18                              text18       000000
__Htext19                              text19       000000
__Htext2                               text2        000000
__Htext20                              text20       000000
__Htext21                              text21       000000
__Htext22                              text22       000000
__Htext23                              text23       000000
__Htext24                              text24       000000
__Htext25                              text25       000000
__Htext26                              text26       000000
__Htext27                              text27       000000
__Htext28                              text28       000000
__Htext29                              text29       000000
__Htext3                               text3        000000
__Htext30                              text30       000000
__Htext31                              text31       000000
__Htext32                              text32       000000
__Htext33                              text33       000000
__Htext34                              text34       000000
__Htext35                              text35       000000
__Htext36                              text36       000000
__Htext37                              text37       000000
__Htext38                              text38       000000
__Htext39                              text39       000000
__Htext4                               text4        000000
__Htext40                              text40       000000
__Htext41                              text41       000000
__Htext42                              text42       000000
__Htext43                              text43       000000
__Htext44                              text44       000000
__Htext45                              text45       000000
__Htext46                              text46       000000
__Htext47                              text47       000000
__Htext48                              text48       000000
__Htext49                              text49       000000
__Htext5                               text5        000000
__Htext50                              text50       000000
__Htext51                              text51       000000
__Htext52                              text52       000000
__Htext53                              text53       000000
__Htext54                              text54       000000
__Htext55                              text55       000000
__Htext56                              text56       000000
__Htext57                              text57       000000
__Htext58                              text58       000000
__Htext59                              text59       000000
__Htext6                               text6        000000
__Htext60                              text60       000000
__Htext61                              text61       000000
__Htext62                              text62       000000
__Htext63                              text63       000000
__Htext64                              text64       000000
__Htext65                              text65       000000
__Htext66                              text66       000000
__Htext67                              text67       000000
__Htext68                              text68       000000
__Htext69                              text69       000000
__Htext7                               text7        000000
__Htext70                              text70       000000
__Htext71                              text71       000000
__Htext72                              text72       000000
__Htext73                              text73       000000
__Htext74                              text74       000000
__Htext75                              text75       000000
__Htext76                              text76       000000
__Htext77                              text77       000000
__Htext78                              text78       000000
__Htext79                              text79       000000
__Htext8                               text8        000000
__Htext80                              text80       000000
__Htext81                              text81       000000
__Htext82                              text82       000000
__Htext83                              text83       000000
__Htext84                              text84       000000
__Htext85                              text85       000000
__Htext86                              text86       000000
__Htext87                              text87       000000
__Htext88                              text88       000000
__Htext89                              text89       000000
__Htext9                               text9        000000
__Htext90                              text90       000000
__Htext91                              text91       000000
__Htext92                              text92       000000
__Htext93                              text93       000000
__Htext94                              text94       000000
__Htext95                              text95       000000
__Htext96                              text96       000000
__Htext97                              text97       000000
__Htext98                              text98       000000
__Htext99                              text99       000000
__LRAM                                 (abs)        000001
__Labs1                                abs1         000000
__Lbank0                               bank0        000000
__Lbank1                               bank1        000000
__Lbank10                              bank10       000000
__Lbank11                              bank11       000000
__Lbank12                              bank12       000000
__Lbank2                               bank2        000000
__Lbank3                               bank3        000000
__Lbank4                               bank4        000000
__Lbank5                               bank5        000000
__Lbank6                               bank6        000000
__Lbank7                               bank7        000000
__Lbank8                               bank8        000000
__Lbank9                               bank9        000000
__Lbigbss                              bigbss       000000
__Lbigdata                             bigdata      000000
__Lbigram                              bigram       000000
__Lbss                                 bss          000000
__LbssBANK0                            bssBANK0     000000
__LbssBANK1                            bssBANK1     000000
__LbssBANK2                            bssBANK2     000000
__LbssBANK3                            bssBANK3     000000
__LbssBANK4                            bssBANK4     000000
__LbssBANK5                            bssBANK5     000000
__LbssCOMRAM                           bssCOMRAM    000000
__Lcinit                               cinit        000000
__Lclrtext                             clrtext      000000
__Lcomram                              comram       000000
__Lconfig                              config       300000
__Lconst                               const        000000
__LcstackBANK0                         cstackBANK0  000000
__LcstackBANK1                         cstackBANK1  000000
__LcstackBANK2                         cstackBANK2  000000
__LcstackCOMRAM                        cstackCOMRAM 000000
__Ldata                                data         000000
__LdataBANK1                           dataBANK1    000000
__LdataBANK3                           dataBANK3    000000
__LdataCOMRAM                          dataCOMRAM   000000
__Leeprom_data                         eeprom_data  000000
__Lend_init                            end_init     0004E8
__Lfarbss                              farbss       000000
__Lfardata                             fardata      000000
__Libigdata                            ibigdata     000000
__Lidata                               idata        000000
__LidataBANK1                          idataBANK1   000000
__LidataBANK3                          idataBANK3   000000
__LidataCOMRAM                         idataCOMRAM  000000
__Lidloc                               idloc        200000
__Lifardata                            ifardata     000000
__Linit                                init         0004E8
__Lintcode                             intcode      000008
__Lintcode_body                        intcode_body 000000
__Lintcodelo                           intcodelo    000018
__Lintentry                            intentry     000000
__Lintret                              intret       000000
__Lintsave_regs                        intsave_regs 000000
__Lirdata                              irdata       000000
__Lmediumconst                         mediumconst  00ECC0
__LnvFARRAM                            nvFARRAM     000000
__Lnvbit                               nvbit        000000
__Lnvrram                              nvrram       000000
__Lparam                               param1       000000
__Lparam1                              param1       000000
__Lpowerup                             powerup      0004E8
__Lram                                 ram          000000
__Lramtop                              ramtop       000D00
__Lrbit                                rbit         000000
__Lrbss                                rbss         000000
__Lrdata                               rdata        000000
__Lreset_vec                           reset_vec    000000
__Lsfr                                 sfr          000000
__Lsmallconst                          smallconst   000000
__Lspace_0                             (abs)        000000
__Lspace_1                             (abs)        000000
__Lspace_2                             (abs)        000000
__Lstack                               stack        000000
__Lstruct                              struct       000000
__Ltemp                                temp         000000
__Ltext                                text         000000
__Ltext0                               text0        000000
__Ltext1                               text1        000000
__Ltext10                              text10       000000
__Ltext100                             text100      000000
__Ltext101                             text101      000000
__Ltext102                             text102      000000
__Ltext103                             text103      000000
__Ltext105                             text105      000000
__Ltext106                             text106      000000
__Ltext107                             text107      000000
__Ltext108                             text108      000000
__Ltext109                             text109      000000
__Ltext11                              text11       000000
__Ltext110                             text110      000000
__Ltext111                             text111      000000
__Ltext112                             text112      000000
__Ltext113                             text113      000000
__Ltext114                             text114      000000
__Ltext115                             text115      000000
__Ltext116                             text116      000000
__Ltext117                             text117      000000
__Ltext118                             text118      000000
__Ltext119                             text119      000000
__Ltext12                              text12       000000
__Ltext120                             text120      000000
__Ltext121                             text121      000000
__Ltext122                             text122      000000
__Ltext123                             text123      000000
__Ltext124                             text124      000000
__Ltext125                             text125      000000
__Ltext126                             text126      000000
__Ltext127                             text127      000000
__Ltext128                             text128      000000
__Ltext129                             text129      000000
__Ltext13                              text13       000000
__Ltext130                             text130      000000
__Ltext131                             text131      000000
__Ltext132                             text132      000000
__Ltext133                             text133      000000
__Ltext134                             text134      000000
__Ltext135                             text135      000000
__Ltext136                             text136      000000
__Ltext14                              text14       000000
__Ltext15                              text15       000000
__Ltext16                              text16       000000
__Ltext17                              text17       000000
__Ltext18                              text18       000000
__Ltext19                              text19       000000
__Ltext2                               text2        000000
__Ltext20                              text20       000000
__Ltext21                              text21       000000
__Ltext22                              text22       000000
__Ltext23                              text23       000000
__Ltext24                              text24       000000
__Ltext25                              text25       000000
__Ltext26                              text26       000000
__Ltext27                              text27       000000
__Ltext28                              text28       000000
__Ltext29                              text29       000000
__Ltext3                               text3        000000
__Ltext30                              text30       000000
__Ltext31                              text31       000000
__Ltext32                              text32       000000
__Ltext33                              text33       000000
__Ltext34                              text34       000000
__Ltext35                              text35       000000
__Ltext36                              text36       000000
__Ltext37                              text37       000000
__Ltext38                              text38       000000
__Ltext39                              text39       000000
__Ltext4                               text4        000000
__Ltext40                              text40       000000
__Ltext41                              text41       000000
__Ltext42                              text42       000000
__Ltext43                              text43       000000
__Ltext44                              text44       000000
__Ltext45                              text45       000000
__Ltext46                              text46       000000
__Ltext47                              text47       000000
__Ltext48                              text48       000000
__Ltext49                              text49       000000
__Ltext5                               text5        000000
__Ltext50                              text50       000000
__Ltext51                              text51       000000
__Ltext52                              text52       000000
__Ltext53                              text53       000000
__Ltext54                              text54       000000
__Ltext55                              text55       000000
__Ltext56                              text56       000000
__Ltext57                              text57       000000
__Ltext58                              text58       000000
__Ltext59                              text59       000000
__Ltext6                               text6        000000
__Ltext60                              text60       000000
__Ltext61                              text61       000000
__Ltext62                              text62       000000
__Ltext63                              text63       000000
__Ltext64                              text64       000000
__Ltext65                              text65       000000
__Ltext66                              text66       000000
__Ltext67                              text67       000000
__Ltext68                              text68       000000
__Ltext69                              text69       000000
__Ltext7                               text7        000000
__Ltext70                              text70       000000
__Ltext71                              text71       000000
__Ltext72                              text72       000000
__Ltext73                              text73       000000
__Ltext74                              text74       000000
__Ltext75                              text75       000000
__Ltext76                              text76       000000
__Ltext77                              text77       000000
__Ltext78                              text78       000000
__Ltext79                              text79       000000
__Ltext8                               text8        000000
__Ltext80                              text80       000000
__Ltext81                              text81       000000
__Ltext82                              text82       000000
__Ltext83                              text83       000000
__Ltext84                              text84       000000
__Ltext85                              text85       000000
__Ltext86                              text86       000000
__Ltext87                              text87       000000
__Ltext88                              text88       000000
__Ltext89                              text89       000000
__Ltext9                               text9        000000
__Ltext90                              text90       000000
__Ltext91                              text91       000000
__Ltext92                              text92       000000
__Ltext93                              text93       000000
__Ltext94                              text94       000000
__Ltext95                              text95       000000
__Ltext96                              text96       000000
__Ltext97                              text97       000000
__Ltext98                              text98       000000
__Ltext99                              text99       000000
__S0                                   (abs)        30000E
__S1                                   (abs)        000564
__S2                                   (abs)        000000
___aldiv                               text22       01585A
___aldiv@counter                       cstackBANK1  00011C
___aldiv@dividend                      cstackBANK1  000114
___aldiv@divisor                       cstackBANK1  000118
___aldiv@quotient                      cstackBANK1  00011E
___aldiv@sign                          cstackBANK1  00011D
___awdiv                               text71       016534
___awdiv@counter                       cstackBANK1  000112
___awdiv@dividend                      cstackBANK1  00010E
___awdiv@divisor                       cstackBANK1  000110
___awdiv@quotient                      cstackBANK1  000114
___awdiv@sign                          cstackBANK1  000113
___awmod                               text70       016AA2
___awmod@counter                       cstackBANK1  000112
___awmod@dividend                      cstackBANK1  00010E
___awmod@divisor                       cstackBANK1  000110
___awmod@sign                          cstackBANK1  000113
___ftdiv                               text42       0155DA
___ftdiv@cntr                          cstackBANK1  000123
___ftdiv@exp                           cstackBANK1  000127
___ftdiv@f1                            cstackBANK1  00011A
___ftdiv@f2                            cstackBANK1  00011D
___ftdiv@f3                            cstackBANK1  000124
___ftdiv@sign                          cstackBANK1  000128
___ftmul                               text41       01505C
___ftmul@cntr                          cstackBANK1  000136
___ftmul@exp                           cstackBANK1  000132
___ftmul@f1                            cstackBANK1  000129
___ftmul@f2                            cstackBANK1  00012C
___ftmul@f3_as_product                 cstackBANK1  000133
___ftmul@sign                          cstackBANK1  000137
___ftpack                              text43       015AA6
___ftpack@arg                          cstackBANK1  00010E
___ftpack@exp                          cstackBANK1  000111
___ftpack@sign                         cstackBANK1  000112
___fttol                               text40       015488
___fttol@exp1                          cstackBANK1  000146
___fttol@f1                            cstackBANK1  000138
___fttol@lval                          cstackBANK1  000142
___fttol@sign1                         cstackBANK1  000141
___inthi_sp                            stack        000000
___intlo_sp                            stack        000000
___lbtoft                              text39       000C08
___lbtoft@c                            cstackBANK1  000119
___lldiv                               text59       016862
___lldiv@counter                       cstackBANK1  00011A
___lldiv@dividend                      cstackBANK1  00010E
___lldiv@divisor                       cstackBANK1  000112
___lldiv@quotient                      cstackBANK1  000116
___llmod                               text48       016F62
___llmod@counter                       cstackBANK1  000123
___llmod@dividend                      cstackBANK1  00011B
___llmod@divisor                       cstackBANK1  00011F
___lmul                                text102      017714
___lmul@multiplicand                   cstackBANK1  000112
___lmul@multiplier                     cstackBANK1  00010E
___lmul@product                        cstackBANK1  000116
___lwmod                               text31       0179D8
___lwmod@counter                       cstackBANK1  000112
___lwmod@dividend                      cstackBANK1  00010E
___lwmod@divisor                       cstackBANK1  000110
___lwtoft                              text30       000CC2
___lwtoft@c                            cstackBANK1  000116
___param_bank                          (abs)        000001
___rparam_used                         (abs)        000000
___sp                                  stack        000000
___wmul                                text47       000A6A
___wmul@multiplicand                   cstackBANK1  000110
___wmul@multiplier                     cstackBANK1  00010E
___wmul@product                        cstackBANK1  000112
__accesstop                            (abs)        000060
__activetblptr                         (abs)        000003
__end_of_Aux2OFF                       mediumconst  00EDA9
__end_of_Aux2ON                        mediumconst  00EDB9
__end_of_AuxOFF                        mediumconst  00EDC9
__end_of_AuxON                         mediumconst  00EDD9
__end_of_BedOFF                        mediumconst  00EDE9
__end_of_BedON                         mediumconst  00EDF9
__end_of_BufferCopy                    text94       016AA2
__end_of_CheckSum_byte                 text99       017CBA
__end_of_ClearLCD                      text87       000E02
__end_of_Command                       text28       01270C
__end_of_ConfigureOscillator           text27       000F78
__end_of_ContrastPWM_init              text26       000F48
__end_of_EEPROM_UNLOCK                 text54       000E46
__end_of_EnableInternalADC             text25       016EBC
__end_of_GetBaud                       text103      000ED6
__end_of_GetEEPROM                     text11       000702
__end_of_GetEnteredNumber              text101      014D3A
__end_of_GetMemoryBaud                 text55       015488
__end_of_GetMemoryChar                 text12       000D18
__end_of_GetMemoryLong                 text15       01505C
__end_of_GetMemoryParity               text51       000DCA
__end_of_I2C_Read_At_Address           text19       01585A
__end_of_I2C_Read_Sequential           text78       015CCE
__end_of_I2C_Write_At_Address          text72       0166D2
__end_of_IRrawToNEC                    text136      01444E
__end_of_ISNUMBER                      text100      000DE8
__end_of_IdleI2C                       text80       000EC4
__end_of_InitApp                       text24       000608
__end_of_InitUART                      text57       015332
__end_of_Init_I2C_Master               text76       000750
__end_of_InternalADC_Read              text96       017BF0
__end_of_IsPrintableASCII              text135      000E1A
__end_of_LCDPrintChar                  text23       000EB0
__end_of_LCDPrintString                text86       017806
__end_of_LCDScreenUpdate               text125      0140F0
__end_of_LCD_Scroll                    text91       014B64
__end_of_LCDdisplayFeedback            text84       000A32
__end_of_Multiple_I2C_Read             text81       00054E
__end_of_One_Config1                   text68       017714
__end_of_One_Config2                   text64       00093E
__end_of_OpenI2C                       text77       000D8A
__end_of_OpenUSART                     text61       0178F4
__end_of_PWM_init                      text20       000C08
__end_of_Parse_Time                    text83       01387C
__end_of_PulseEnablePin                text89       000B74
__end_of_READ_RTC_TIME                 text74       01637A
__end_of_RTC_Clock_Enable              text18       0007EA
__end_of_RTC_INIT                      text16       000EF6
__end_of_RTC_TIME_NONMilitary          text17       017B86
__end_of_ReadButton1                   text123      000F2E
__end_of_ReadEEPROM_1Byte              text56       0009F6
__end_of_ReadIRpin                     text9        000F04
__end_of_ReadUSART                     text60       000B42
__end_of_RemoveSpaces                  text73       0171E2
__end_of_ResetI2C                      text75       000D66
__end_of_Reset_Timer0                  text124      000F68
__end_of_Reset_Timer1                  text93       000F5E
__end_of_SET_RTC_TIME                  text69       0146F2
__end_of_SendLCDbyte                   text88       0161A2
__end_of_Send_Config1                  text65       016534
__end_of_Send_Config2                  text62       0174A8
__end_of_SetBaud                       text44       01497A
__end_of_SetContrast                   text38       01679A
__end_of_SetDuty                       text37       016C08
__end_of_SetEEPROM                     text13       016D6A
__end_of_SetFreq                       text21       0006B4
__end_of_SetLCDcursor                  text85       00097C
__end_of_SetMemoryBaud                 text52       01645A
__end_of_SetMemoryLong                 text14       015EC6
__end_of_SetMemoryParity               text50       000B0E
__end_of_SprintDate                    text36       0160B2
__end_of_Start_Timer0                  text8        000F88
__end_of_Start_Timer1                  text92       000F54
__end_of_StartsWith                    text35       01730C
__end_of_Stop_Timer0                   text6        000F84
__end_of_Stop_Timer1                   text3        000F70
__end_of_StringAddEqual                text34       014EEC
__end_of_StringContains                text33       017528
__end_of_StringMatch                   text32       0175A6
__end_of_SubLightOFF                   mediumconst  00EE09
__end_of_SubLightON                    mediumconst  00EE19
__end_of_SyncEEPROMandGLOBAL           text10       000A6A
__end_of_TXToiletAlexBathroom          mediumconst  00ED45
__end_of_TXToiletMyBathroom            mediumconst  00ED51
__end_of_TXdataBedroomCLOSED           mediumconst  00ED5D
__end_of_TXdataBedroomOPENED           mediumconst  00ED69
__end_of_TXdataD                       mediumconst  00EE45
__end_of_TXdataE                       mediumconst  00EE51
__end_of_TXdataF                       mediumconst  00EE5D
__end_of_TXdataFrontCLOSED             mediumconst  00ED75
__end_of_TXdataFrontOPENED             mediumconst  00ED81
__end_of_TXdataLabCLOSED               mediumconst  00ED8D
__end_of_TXdataLabOPENED               mediumconst  00ED99
__end_of_UARTchar                      text98       017424
__end_of_UARTstring                    text97       0170AA
__end_of_UARTstringWAIT                text49       017968
__end_of_UseIRCode                     text109      015DCC
__end_of_WriteEEPROM_1Byte             text53       0008BE
__end_of_WriteI2C                      text79       017AB0
__end_of_Zero_Config1                  text67       01769A
__end_of_Zero_Config2                  text63       0008FE
__end_of___aldiv                       text22       015986
__end_of___awdiv                       text71       016604
__end_of___awmod                       text70       016B56
__end_of___ftdiv                       text42       01572C
__end_of___ftmul                       text41       0151C8
__end_of___ftpack                      text43       015BC6
__end_of___fttol                       text40       0155DA
__end_of___lbtoft                      text39       000C38
__end_of___lldiv                       text59       016928
__end_of___llmod                       text48       017006
__end_of___lmul                        text102      01778E
__end_of___lwmod                       text31       017A44
__end_of___lwtoft                      text30       000CEE
__end_of___wmul                        text47       000AA2
__end_of__initialization               cinit        016E10
__end_of_baudUSART                     text58       000F12
__end_of_cleanBuffer                   text95       000662
__end_of_cleanBuffer16bit              text7        0005AC
__end_of_delayUS                       text90       017B1C
__end_of_dpowers                       mediumconst  00ED19
__end_of_f_Config1                     text66       017620
__end_of_fanOFF                        mediumconst  00EE29
__end_of_fanON                         mediumconst  00EE39
__end_of_hexpowers                     mediumconst  00ED39
__end_of_high_isr                      intcode_body 017C56
__end_of_init_IR                       text4        00087E
__end_of_init_LCD                      text1        015AA6
__end_of_init_Timer0                   text5        000E30
__end_of_init_Timer1                   text2        000EE6
__end_of_isdigit                       text46       000C66
__end_of_low_isr                       intcodelo    0004E8
__end_of_lowercase                     text29       017398
__end_of_main                          text0        013D4A
__end_of_octpowers                     mediumconst  00ECF1
__end_of_readI2C                       text82       000DAC
__end_of_sprintf                       text45       0133AA
__end_ofi1_BufferCopy                  text108      016F62
__end_ofi1_CheckSum_byte               text112      000836
__end_ofi1_ClearLCD                    text131      000E88
__end_ofi1_EEPROM_UNLOCK               text120      000E72
__end_ofi1_GetMemoryBaud               text121      016290
__end_ofi1_GetMemoryLong               text117      015FC0
__end_ofi1_GetMemoryParity             text115      000E5C
__end_ofi1_LCDPrintChar                text130      000F3C
__end_ofi1_LCDPrintString              text129      0179D8
__end_ofi1_PulseEnablePin              text133      000CC2
__end_ofi1_ReadEEPROM_1Byte            text122      000BD8
__end_ofi1_ReadIRpin                   text107      000F20
__end_ofi1_ReadUSART                   text106      000BA6
__end_ofi1_SendLCDbyte                 text132      016862
__end_ofi1_SetEEPROM                   text113      017148
__end_ofi1_SetLCDcursor                text128      000C94
__end_ofi1_SetMemoryBaud               text118      016CBA
__end_ofi1_SetMemoryLong               text116      0169E6
__end_ofi1_SetMemoryParity             text114      000D42
__end_ofi1_Stop_Timer1                 text127      000F80
__end_ofi1_UARTchar                    text111      01787E
__end_ofi1_UARTstring                  text110      017278
__end_ofi1_WriteEEPROM_1Byte           text119      000ADA
__end_ofi1_cleanBuffer                 text126      0009BA
__end_ofi1_cleanBuffer16bit            text105      017CFC
__end_ofi1_delayUS                     text134      00079E
__initialization                       cinit        016D6A
__mediumconst                          mediumconst  00ECC0
__pbssBANK0                            bssBANK0     0000EE
__pbssBANK1                            bssBANK1     00018A
__pbssBANK2                            bssBANK2     0002E5
__pbssBANK3                            bssBANK3     000300
__pbssBANK4                            bssBANK4     000400
__pbssBANK5                            bssBANK5     000500
__pbssCOMRAM                           bssCOMRAM    000053
__pcinit                               cinit        016D6A
__pcstackBANK0                         cstackBANK0  000060
__pcstackBANK1                         cstackBANK1  000100
__pcstackBANK2                         cstackBANK2  000200
__pcstackCOMRAM                        cstackCOMRAM 000001
__pdataBANK1                           dataBANK1    0001EE
__pdataBANK3                           dataBANK3    0003A4
__pdataCOMRAM                          dataCOMRAM   00004F
__pidataBANK1                          idataBANK1   000F88
__pidataBANK3                          idataBANK3   000E88
__pidataCOMRAM                         idataCOMRAM  017CFC
__pintcode                             intcode      000008
__pintcode_body                        intcode_body 017BF0
__pintcodelo                           intcodelo    000018
__pmediumconst                         mediumconst  00ECC0
__ptext0                               text0        01387C
__ptext1                               text1        015986
__ptext10                              text10       000A32
__ptext100                             text100      000DCA
__ptext101                             text101      014B64
__ptext102                             text102      017714
__ptext103                             text103      000EC4
__ptext105                             text105      017CBA
__ptext106                             text106      000B74
__ptext107                             text107      000F12
__ptext108                             text108      016EBC
__ptext109                             text109      015CCE
__ptext11                              text11       0006B4
__ptext110                             text110      0171E2
__ptext111                             text111      017806
__ptext112                             text112      0007EA
__ptext113                             text113      0170AA
__ptext114                             text114      000D18
__ptext115                             text115      000E46
__ptext116                             text116      016928
__ptext117                             text117      015EC6
__ptext118                             text118      016C08
__ptext119                             text119      000AA2
__ptext12                              text12       000CEE
__ptext120                             text120      000E5C
__ptext121                             text121      0161A2
__ptext122                             text122      000BA6
__ptext123                             text123      000F20
__ptext124                             text124      000F5E
__ptext125                             text125      013D4A
__ptext126                             text126      00097C
__ptext127                             text127      000F78
__ptext128                             text128      000C66
__ptext129                             text129      017968
__ptext13                              text13       016CBA
__ptext130                             text130      000F2E
__ptext131                             text131      000E72
__ptext132                             text132      01679A
__ptext133                             text133      000C94
__ptext134                             text134      000750
__ptext135                             text135      000E02
__ptext136                             text136      0140F0
__ptext14                              text14       015DCC
__ptext15                              text15       014EEC
__ptext16                              text16       000EE6
__ptext17                              text17       017B1C
__ptext18                              text18       00079E
__ptext19                              text19       01572C
__ptext2                               text2        000ED6
__ptext20                              text20       000BD8
__ptext21                              text21       000662
__ptext22                              text22       01585A
__ptext23                              text23       000E9C
__ptext24                              text24       0005AC
__ptext25                              text25       016E16
__ptext26                              text26       000F3C
__ptext27                              text27       000F70
__ptext28                              text28       010000
__ptext29                              text29       01730C
__ptext3                               text3        000F68
__ptext30                              text30       000CC2
__ptext31                              text31       0179D8
__ptext32                              text32       017528
__ptext33                              text33       0174A8
__ptext34                              text34       014D3A
__ptext35                              text35       017278
__ptext36                              text36       015FC0
__ptext37                              text37       016B56
__ptext38                              text38       0166D2
__ptext39                              text39       000C08
__ptext4                               text4        000836
__ptext40                              text40       015488
__ptext41                              text41       01505C
__ptext42                              text42       0155DA
__ptext43                              text43       015AA6
__ptext44                              text44       0146F2
__ptext45                              text45       01270C
__ptext46                              text46       000C38
__ptext47                              text47       000A6A
__ptext48                              text48       016F62
__ptext49                              text49       0178F4
__ptext5                               text5        000E1A
__ptext50                              text50       000ADA
__ptext51                              text51       000DAC
__ptext52                              text52       01637A
__ptext53                              text53       00087E
__ptext54                              text54       000E30
__ptext55                              text55       015332
__ptext56                              text56       0009BA
__ptext57                              text57       0151C8
__ptext58                              text58       000F04
__ptext59                              text59       016862
__ptext6                               text6        000F80
__ptext60                              text60       000B0E
__ptext61                              text61       01787E
__ptext62                              text62       017424
__ptext63                              text63       0008BE
__ptext64                              text64       0008FE
__ptext65                              text65       01645A
__ptext66                              text66       0175A6
__ptext67                              text67       017620
__ptext68                              text68       01769A
__ptext69                              text69       01444E
__ptext7                               text7        00054E
__ptext70                              text70       016AA2
__ptext71                              text71       016534
__ptext72                              text72       016604
__ptext73                              text73       017148
__ptext74                              text74       016290
__ptext75                              text75       000D42
__ptext76                              text76       000702
__ptext77                              text77       000D66
__ptext78                              text78       015BC6
__ptext79                              text79       017A44
__ptext8                               text8        000F84
__ptext80                              text80       000EB0
__ptext81                              text81       0004EC
__ptext82                              text82       000D8A
__ptext83                              text83       0133AA
__ptext84                              text84       0009F6
__ptext85                              text85       00093E
__ptext86                              text86       01778E
__ptext87                              text87       000DE8
__ptext88                              text88       0160B2
__ptext89                              text89       000B42
__ptext9                               text9        000EF6
__ptext90                              text90       017AB0
__ptext91                              text91       01497A
__ptext92                              text92       000F48
__ptext93                              text93       000F54
__ptext94                              text94       0169E6
__ptext95                              text95       000608
__ptext96                              text96       017B86
__ptext97                              text97       017006
__ptext98                              text98       017398
__ptext99                              text99       017C56
__ramtop                               ramtop       000D00
__size_of_BufferCopy                   (abs)        000000
__size_of_CheckSum_byte                (abs)        000000
__size_of_ClearLCD                     (abs)        000000
__size_of_Command                      (abs)        000000
__size_of_ConfigureOscillator          (abs)        000000
__size_of_ContrastPWM_init             (abs)        000000
__size_of_EEPROM_UNLOCK                (abs)        000000
__size_of_EnableInternalADC            (abs)        000000
__size_of_GetBaud                      (abs)        000000
__size_of_GetEEPROM                    (abs)        000000
__size_of_GetEnteredNumber             (abs)        000000
__size_of_GetMemoryBaud                (abs)        000000
__size_of_GetMemoryChar                (abs)        000000
__size_of_GetMemoryLong                (abs)        000000
__size_of_GetMemoryParity              (abs)        000000
__size_of_I2C_Read_At_Address          (abs)        000000
__size_of_I2C_Read_Sequential          (abs)        000000
__size_of_I2C_Write_At_Address         (abs)        000000
__size_of_IRrawToNEC                   (abs)        000000
__size_of_ISNUMBER                     (abs)        000000
__size_of_IdleI2C                      (abs)        000000
__size_of_InitApp                      (abs)        000000
__size_of_InitUART                     (abs)        000000
__size_of_Init_I2C_Master              (abs)        000000
__size_of_InternalADC_Read             (abs)        000000
__size_of_IsPrintableASCII             (abs)        000000
__size_of_LCDPrintChar                 (abs)        000000
__size_of_LCDPrintString               (abs)        000000
__size_of_LCDScreenUpdate              (abs)        000000
__size_of_LCD_Scroll                   (abs)        000000
__size_of_LCDdisplayFeedback           (abs)        000000
__size_of_Multiple_I2C_Read            (abs)        000000
__size_of_One_Config1                  (abs)        000000
__size_of_One_Config2                  (abs)        000000
__size_of_OpenI2C                      (abs)        000000
__size_of_OpenUSART                    (abs)        000000
__size_of_PWM_init                     (abs)        000000
__size_of_Parse_Time                   (abs)        000000
__size_of_PulseEnablePin               (abs)        000000
__size_of_READ_RTC_TIME                (abs)        000000
__size_of_RTC_Clock_Enable             (abs)        000000
__size_of_RTC_INIT                     (abs)        000000
__size_of_RTC_TIME_NONMilitary         (abs)        000000
__size_of_ReadButton1                  (abs)        000000
__size_of_ReadEEPROM_1Byte             (abs)        000000
__size_of_ReadIRpin                    (abs)        000000
__size_of_ReadUSART                    (abs)        000000
__size_of_RemoveSpaces                 (abs)        000000
__size_of_ResetI2C                     (abs)        000000
__size_of_Reset_Timer0                 (abs)        000000
__size_of_Reset_Timer1                 (abs)        000000
__size_of_SET_RTC_TIME                 (abs)        000000
__size_of_SendLCDbyte                  (abs)        000000
__size_of_Send_Config1                 (abs)        000000
__size_of_Send_Config2                 (abs)        000000
__size_of_SetBaud                      (abs)        000000
__size_of_SetContrast                  (abs)        000000
__size_of_SetDuty                      (abs)        000000
__size_of_SetEEPROM                    (abs)        000000
__size_of_SetFreq                      (abs)        000000
__size_of_SetLCDcursor                 (abs)        000000
__size_of_SetMemoryBaud                (abs)        000000
__size_of_SetMemoryLong                (abs)        000000
__size_of_SetMemoryParity              (abs)        000000
__size_of_SprintDate                   (abs)        000000
__size_of_Start_Timer0                 (abs)        000000
__size_of_Start_Timer1                 (abs)        000000
__size_of_StartsWith                   (abs)        000000
__size_of_Stop_Timer0                  (abs)        000000
__size_of_Stop_Timer1                  (abs)        000000
__size_of_StringAddEqual               (abs)        000000
__size_of_StringContains               (abs)        000000
__size_of_StringMatch                  (abs)        000000
__size_of_SyncEEPROMandGLOBAL          (abs)        000000
__size_of_UARTchar                     (abs)        000000
__size_of_UARTstring                   (abs)        000000
__size_of_UARTstringWAIT               (abs)        000000
__size_of_UseIRCode                    (abs)        000000
__size_of_WriteEEPROM_1Byte            (abs)        000000
__size_of_WriteI2C                     (abs)        000000
__size_of_Zero_Config1                 (abs)        000000
__size_of_Zero_Config2                 (abs)        000000
__size_of___aldiv                      (abs)        000000
__size_of___awdiv                      (abs)        000000
__size_of___awmod                      (abs)        000000
__size_of___ftdiv                      (abs)        000000
__size_of___ftmul                      (abs)        000000
__size_of___ftpack                     (abs)        000000
__size_of___fttol                      (abs)        000000
__size_of___lbtoft                     (abs)        000000
__size_of___lldiv                      (abs)        000000
__size_of___llmod                      (abs)        000000
__size_of___lmul                       (abs)        000000
__size_of___lwmod                      (abs)        000000
__size_of___lwtoft                     (abs)        000000
__size_of___wmul                       (abs)        000000
__size_of_baudUSART                    (abs)        000000
__size_of_cleanBuffer                  (abs)        000000
__size_of_cleanBuffer16bit             (abs)        000000
__size_of_delayUS                      (abs)        000000
__size_of_f_Config1                    (abs)        000000
__size_of_high_isr                     (abs)        000000
__size_of_init_IR                      (abs)        000000
__size_of_init_LCD                     (abs)        000000
__size_of_init_Timer0                  (abs)        000000
__size_of_init_Timer1                  (abs)        000000
__size_of_isdigit                      (abs)        000000
__size_of_low_isr                      (abs)        000000
__size_of_lowercase                    (abs)        000000
__size_of_main                         (abs)        000000
__size_of_readI2C                      (abs)        000000
__size_of_sprintf                      (abs)        000000
__size_ofi1_BufferCopy                 (abs)        000000
__size_ofi1_CheckSum_byte              (abs)        000000
__size_ofi1_ClearLCD                   (abs)        000000
__size_ofi1_EEPROM_UNLOCK              (abs)        000000
__size_ofi1_GetMemoryBaud              (abs)        000000
__size_ofi1_GetMemoryLong              (abs)        000000
__size_ofi1_GetMemoryParity            (abs)        000000
__size_ofi1_LCDPrintChar               (abs)        000000
__size_ofi1_LCDPrintString             (abs)        000000
__size_ofi1_PulseEnablePin             (abs)        000000
__size_ofi1_ReadEEPROM_1Byte           (abs)        000000
__size_ofi1_ReadIRpin                  (abs)        000000
__size_ofi1_ReadUSART                  (abs)        000000
__size_ofi1_SendLCDbyte                (abs)        000000
__size_ofi1_SetEEPROM                  (abs)        000000
__size_ofi1_SetLCDcursor               (abs)        000000
__size_ofi1_SetMemoryBaud              (abs)        000000
__size_ofi1_SetMemoryLong              (abs)        000000
__size_ofi1_SetMemoryParity            (abs)        000000
__size_ofi1_Stop_Timer1                (abs)        000000
__size_ofi1_UARTchar                   (abs)        000000
__size_ofi1_UARTstring                 (abs)        000000
__size_ofi1_WriteEEPROM_1Byte          (abs)        000000
__size_ofi1_cleanBuffer                (abs)        000000
__size_ofi1_cleanBuffer16bit           (abs)        000000
__size_ofi1_delayUS                    (abs)        000000
__smallconst                           smallconst   000000
_baudUSART                             text58       000F04
_buf                                   bssBANK4     000400
_bufferCount                           bssBANK0     0000F3
_cleanBuffer                           text95       000608
_cleanBuffer16bit                      text7        00054E
_delayUS                               text90       017AB0
_dpowers                               mediumconst  00ECF1
_f_Config1                             text66       0175A6
_fanOFF                                mediumconst  00EE19
_fanON                                 mediumconst  00EE29
_hexpowers                             mediumconst  00ED19
_high_isr                              intcode      000008
_init_IR                               text4        000836
_init_LCD                              text1        015986
_init_Timer0                           text5        000E1A
_init_Timer1                           text2        000ED6
_isdigit                               text46       000C38
_isdigit$3366                          cstackBANK1  00010F
_low_isr                               intcodelo    000018
_lowercase                             text29       01730C
_main                                  text0        01387C
_octpowers                             mediumconst  00ECC1
_readI2C                               text82       000D8A
_sprintf                               text45       01270C
_sprintf$3080                          cstackBANK1  00013B
_sprintf$3081                          cstackBANK1  00013D
_sprintf$3087                          cstackBANK1  00013F
baudUSART@baudconfig                   cstackBANK1  00010E
cleanBuffer16bit@count                 cstackBANK1  000110
cleanBuffer16bit@data                  cstackBANK1  00010E
cleanBuffer16bit@i                     cstackBANK1  000115
cleanBuffer@count                      cstackBANK1  000110
cleanBuffer@data                       cstackBANK1  00010E
cleanBuffer@i                          cstackBANK1  000115
delayUS@US                             cstackBANK1  00010E
delayUS@i                              cstackBANK1  000113
delayUS@j                              cstackBANK1  000117
end_of_initialization                  cinit        016E10
f_Config1@pin                          cstackBANK1  000118
i1BufferCopy@count                     cstackCOMRAM 00000D
i1BufferCopy@from                      cstackCOMRAM 000009
i1BufferCopy@i                         cstackCOMRAM 00000F
i1BufferCopy@shift                     cstackCOMRAM 00000E
i1BufferCopy@to                        cstackCOMRAM 00000B
i1CheckSum_byte@Odd_Even               cstackCOMRAM 000003
i1CheckSum_byte@Parity                 cstackCOMRAM 000006
i1CheckSum_byte@This                   cstackCOMRAM 000001
i1CheckSum_byte@ThisTemp               cstackCOMRAM 000004
i1CheckSum_byte@i                      cstackCOMRAM 000007
i1GetMemoryBaud@BaudTempH              cstackCOMRAM 000020
i1GetMemoryBaud@BaudTempL              cstackCOMRAM 000023
i1GetMemoryBaud@BaudTempMH             cstackCOMRAM 000021
i1GetMemoryBaud@BaudTempML             cstackCOMRAM 000022
i1GetMemoryBaud@baud                   cstackCOMRAM 00001C
i1GetMemoryLong@AddressFirst           cstackCOMRAM 000024
i1GetMemoryLong@H                      cstackCOMRAM 000020
i1GetMemoryLong@L                      cstackCOMRAM 000023
i1GetMemoryLong@MH                     cstackCOMRAM 000021
i1GetMemoryLong@ML                     cstackCOMRAM 000022
i1GetMemoryLong@temp                   cstackCOMRAM 00001C
i1GetMemoryParity@Parity               cstackCOMRAM 000004
i1LCDPrintChar@character               cstackCOMRAM 00000F
i1LCDPrintString@Text                  cstackCOMRAM 00000F
i1LCDPrintString@c                     cstackCOMRAM 000011
i1ReadEEPROM_1Byte@GIEstatus           cstackCOMRAM 000003
i1ReadEEPROM_1Byte@address             cstackCOMRAM 000001
i1ReadUSART@data                       cstackCOMRAM 000001
i1SendLCDbyte@LSB_nibble               cstackCOMRAM 00000E
i1SendLCDbyte@MSB_nibble               cstackCOMRAM 00000D
i1SendLCDbyte@data                     cstackCOMRAM 00000C
i1SendLCDbyte@isCommand                cstackCOMRAM 00000B
i1SetEEPROM@Temp                       cstackCOMRAM 000036
i1SetEEPROM@burn                       cstackCOMRAM 00003F
i1SetEEPROM@fail                       cstackCOMRAM 000043
i1SetLCDcursor@Col                     cstackCOMRAM 00000F
i1SetLCDcursor@Row                     cstackCOMRAM 000010
i1SetLCDcursor@address                 cstackCOMRAM 000011
i1SetMemoryBaud@Baud                   cstackCOMRAM 000024
i1SetMemoryBaud@BaudTempH              cstackCOMRAM 000030
i1SetMemoryBaud@BaudTempL              cstackCOMRAM 000033
i1SetMemoryBaud@BaudTempMH             cstackCOMRAM 000031
i1SetMemoryBaud@BaudTempML             cstackCOMRAM 000032
i1SetMemoryBaud@Test                   cstackCOMRAM 00002C
i1SetMemoryLong@AddressFirst           cstackCOMRAM 000029
i1SetMemoryLong@Data                   cstackCOMRAM 000025
i1SetMemoryLong@H                      cstackCOMRAM 000032
i1SetMemoryLong@L                      cstackCOMRAM 000035
i1SetMemoryLong@MH                     cstackCOMRAM 000033
i1SetMemoryLong@ML                     cstackCOMRAM 000034
i1SetMemoryLong@Test                   cstackCOMRAM 00002E
i1SetMemoryParity@Parity               cstackCOMRAM 000006
i1SetMemoryParity@Test                 cstackCOMRAM 000005
i1UARTchar@NinethBit_override          cstackCOMRAM 000008
i1UARTchar@NinethBit_override_data     cstackCOMRAM 000009
i1UARTchar@data                        cstackCOMRAM 00000B
i1UARTstring@data                      cstackCOMRAM 00000C
i1WriteEEPROM_1Byte@GIEstatus          cstackCOMRAM 000004
i1WriteEEPROM_1Byte@address            cstackCOMRAM 000001
i1WriteEEPROM_1Byte@data               cstackCOMRAM 000003
i1_BufferCopy                          text108      016EBC
i1_CheckSum_byte                       text112      0007EA
i1_ClearLCD                            text131      000E72
i1_EEPROM_UNLOCK                       text120      000E5C
i1_GetMemoryBaud                       text121      0161A2
i1_GetMemoryLong                       text117      015EC6
i1_GetMemoryParity                     text115      000E46
i1_LCDPrintChar                        text130      000F2E
i1_LCDPrintString                      text129      017968
i1_PulseEnablePin                      text133      000C94
i1_ReadEEPROM_1Byte                    text122      000BA6
i1_ReadIRpin                           text107      000F12
i1_ReadUSART                           text106      000B74
i1_SendLCDbyte                         text132      01679A
i1_SetEEPROM                           text113      0170AA
i1_SetLCDcursor                        text128      000C66
i1_SetMemoryBaud                       text118      016C08
i1_SetMemoryLong                       text116      016928
i1_SetMemoryParity                     text114      000D18
i1_Stop_Timer1                         text127      000F78
i1_UARTchar                            text111      017806
i1_UARTstring                          text110      0171E2
i1_WriteEEPROM_1Byte                   text119      000AA2
i1_cleanBuffer                         text126      00097C
i1_cleanBuffer16bit                    text105      017CBA
i1_delayUS                             text134      000750
i1cleanBuffer16bit@count               cstackCOMRAM 000003
i1cleanBuffer16bit@data                cstackCOMRAM 000001
i1cleanBuffer16bit@i                   cstackCOMRAM 000008
i1cleanBuffer@count                    cstackCOMRAM 000003
i1cleanBuffer@data                     cstackCOMRAM 000001
i1cleanBuffer@i                        cstackCOMRAM 000008
i1delayUS@US                           cstackCOMRAM 000001
i1delayUS@i                            cstackCOMRAM 000006
i1delayUS@j                            cstackCOMRAM 00000A
int_func                               intcode_body 017BF0
intlevel0                              text         000000
intlevel1                              text         000000
intlevel2                              text         000000
intlevel3                              text         000000
isdigit@c                              cstackBANK1  000110
low_isr@IRpin                          cstackBANK0  0000EB
low_isr@LCD_TEMP                       cstackBANK0  0000D9
low_isr@TEMP_Rxdata                    cstackBANK0  000075
low_isr@i                              cstackBANK0  0000E9
low_isr@j                              cstackBANK0  0000EC
low_isr@rx                             cstackBANK0  0000ED
lowercase@Input                        cstackBANK1  00010E
lowercase@i                            cstackBANK1  000111
main@MemoryBurnflag                    cstackBANK2  0002E2
main@count                             cstackBANK2  0002E4
main@ii                                cstackBANK2  0002E3
sprintf@ap                             cstackBANK1  000143
sprintf@c                              cstackBANK1  00014D
sprintf@cp                             cstackBANK1  000139
sprintf@f                              cstackBANK1  000126
sprintf@flag                           cstackBANK1  00014E
sprintf@idx                            cstackBANK1  000138
sprintf@len                            cstackBANK1  000141
sprintf@prec                           cstackBANK1  000149
sprintf@sp                             cstackBANK1  000124
sprintf@val                            cstackBANK1  000145
sprintf@width                          cstackBANK1  00014B
stackhi                                (abs)        000CEE
stacklo                                (abs)        000564
start                                  init         0004E8
start_initialization                   cinit        016D6A


FUNCTION INFORMATION:

 *************** function _main *****************
 Defined at:
		line 84 in file "main.c"
 Parameters:    Size  Location     Type
		None
 Auto vars:     Size  Location     Type
  count           1  228[BANK2 ] unsigned char 
  ii              1  227[BANK2 ] unsigned char 
  MemoryBurnfl    1  226[BANK2 ] unsigned char 
 Return value:  Size  Location     Type
		None               void
 Registers used:
		wreg, fsr0l, fsr0h, fsr1l, fsr1h, fsr2l, fsr2h, status,2, status,0, tblptrl, tblptrh, tblptru, prodl, prodh, cstack
 Tracked objects:
		On entry : 
		On exit  : 
		Unchanged: 
 Data sizes:     COMRAM   BANK0   BANK1   BANK2   BANK3   BANK4   BANK5   BANK6   BANK7   BANK8   BANK9  BANK10  BANK11  BANK12
      Params:         0       0       0       0       0       0       0       0       0       0       0       0       0       0
      Locals:         0       0       0       3       0       0       0       0       0       0       0       0       0       0
      Temps:          0       0       0       0       0       0       0       0       0       0       0       0       0       0
      Totals:         0       0       0       3       0       0       0       0       0       0       0       0       0       0
Total ram usage:        3 bytes
 Hardware stack levels required when called:   13
 This function calls:
		_ClearLCD
		_Command
		_ConfigureOscillator
		_ContrastPWM_init
		_EnableInternalADC
		_InitApp
		_InitUART
		_Init_I2C_Master
		_LCDPrintChar
		_LCDPrintString
		_PWM_init
		_RTC_INIT
		_ReadUSART
		_SetContrast
		_SetDuty
		_SetEEPROM
		_SetLCDcursor
		_SyncEEPROMandGLOBAL
		_UARTstring
		_cleanBuffer
		_delayUS
		_init_IR
		_init_LCD
 This function is called by:
		Startup code after reset
 This function uses a non-reentrant model


 *************** function _init_LCD *****************
 Defined at:
		line 67 in file "LCD.c"
 Parameters:    Size  Location     Type
		None
 Auto vars:     Size  Location     Type
		None
 Return value:  Size  Location     Type
		None               void
 Registers used:
		wreg, status,2, status,0, cstack
 Tracked objects:
		On entry : 
		On exit  : 
		Unchanged: 
 Data sizes:     COMRAM   BANK0   BANK1   BANK2   BANK3   BANK4   BANK5   BANK6   BANK7   BANK8   BANK9  BANK10  BANK11  BANK12
      Params:         0       0       0       0       0       0       0       0       0       0       0       0       0       0
      Locals:         0       0       0       0       0       0       0       0       0       0       0       0       0       0
      Temps:          0       0       0       0       0       0       0       0       0       0       0       0       0       0
      Totals:         0       0       0       0       0       0       0       0       0       0       0       0       0       0
Total ram usage:        0 bytes
 Hardware stack levels used:    1
 Hardware stack levels required when called:   11
 This function calls:
		_ClearLCD
		_PulseEnablePin
		_SendLCDbyte
		_delayUS
		_init_Timer1
 This function is called by:
		_main
 This function uses a non-reentrant model


 *************** function _init_Timer1 *****************
 Defined at:
		line 119 in file "Timer.c"
 Parameters:    Size  Location     Type
		None
 Auto vars:     Size  Location     Type
		None
 Return value:  Size  Location     Type
		None               void
 Registers used:
		wreg, status,2, cstack
 Tracked objects:
		On entry : 
		On exit  : 
		Unchanged: 
 Data sizes:     COMRAM   BANK0   BANK1   BANK2   BANK3   BANK4   BANK5   BANK6   BANK7   BANK8   BANK9  BANK10  BANK11  BANK12
      Params:         0       0       0       0       0       0       0       0       0       0       0       0       0       0
      Locals:         0       0       0       0       0       0       0       0       0       0       0       0       0       0
      Temps:          0       0       0       0       0       0       0       0       0       0       0       0       0       0
      Totals:         0       0       0       0       0       0       0       0       0       0       0       0       0       0
Total ram usage:        0 bytes
 Hardware stack levels used:    1
 Hardware stack levels required when called:    8
 This function calls:
		_Stop_Timer1
 This function is called by:
		_init_LCD
		_init_Timers
 This function uses a non-reentrant model


 *************** function _Stop_Timer1 *****************
 Defined at:
		line 137 in file "Timer.c"
 Parameters:    Size  Location     Type
		None
 Auto vars:     Size  Location     Type
		None
 Return value:  Size  Location     Type
		None               void
 Registers used:
		None
 Tracked objects:
		On entry : 
		On exit  : 
		Unchanged: 
 Data sizes:     COMRAM   BANK0   BANK1   BANK2   BANK3   BANK4   BANK5   BANK6   BANK7   BANK8   BANK9  BANK10  BANK11  BANK12
      Params:         0       0       0       0       0       0       0       0       0       0       0       0       0       0
      Locals:         0       0       0       0       0       0       0       0       0       0       0       0       0       0
      Temps:          0       0       0       0       0       0       0       0       0       0       0       0       0       0
      Totals:         0       0       0       0       0       0       0       0       0       0       0       0       0       0
Total ram usage:        0 bytes
 Hardware stack levels used:    1
 Hardware stack levels required when called:    7
 This function calls:
		Nothing
 This function is called by:
		_init_Timer1
 This function uses a non-reentrant model


 *************** function _init_IR *****************
 Defined at:
		line 68 in file "IR.c"
 Parameters:    Size  Location     Type
		None
 Auto vars:     Size  Location     Type
		None
 Return value:  Size  Location     Type
		None               void
 Registers used:
		wreg, fsr2l, fsr2h, status,2, status,0, prodl, prodh, cstack
 Tracked objects:
		On entry : 
		On exit  : 
		Unchanged: 
 Data sizes:     COMRAM   BANK0   BANK1   BANK2   BANK3   BANK4   BANK5   BANK6   BANK7   BANK8   BANK9  BANK10  BANK11  BANK12
      Params:         0       0       0       0       0       0       0       0       0       0       0       0       0       0
      Locals:         0       0       0       0       0       0       0       0       0       0       0       0       0       0
      Temps:          0       0       0       0       0       0       0       0       0       0       0       0       0       0
      Totals:         0       0       0       0       0       0       0       0       0       0       0       0       0       0
Total ram usage:        0 bytes
 Hardware stack levels used:    1
 Hardware stack levels required when called:    9
 This function calls:
		_ReadIRpin
		_Start_Timer0
		_cleanBuffer16bit
		_init_Timer0
 This function is called by:
		_main
 This function uses a non-reentrant model


 *************** function _init_Timer0 *****************
 Defined at:
		line 60 in file "Timer.c"
 Parameters:    Size  Location     Type
		None
 Auto vars:     Size  Location     Type
		None
 Return value:  Size  Location     Type
		None               void
 Registers used:
		wreg, status,2, cstack
 Tracked objects:
		On entry : 
		On exit  : 
		Unchanged: 
 Data sizes:     COMRAM   BANK0   BANK1   BANK2   BANK3   BANK4   BANK5   BANK6   BANK7   BANK8   BANK9  BANK10  BANK11  BANK12
      Params:         0       0       0       0       0       0       0       0       0       0       0       0       0       0
      Locals:         0       0       0       0       0       0       0       0       0       0       0       0       0       0
      Temps:          0       0       0       0       0       0       0       0       0       0       0       0       0       0
      Totals:         0       0       0       0       0       0       0       0       0       0       0       0       0       0
Total ram usage:        0 bytes
 Hardware stack levels used:    1
 Hardware stack levels required when called:    8
 This function calls:
		_Stop_Timer0
 This function is called by:
		_init_IR
		_init_Timers
 This function uses a non-reentrant model


 *************** function _Stop_Timer0 *****************
 Defined at:
		line 81 in file "Timer.c"
 Parameters:    Size  Location     Type
		None
 Auto vars:     Size  Location     Type
		None
 Return value:  Size  Location     Type
		None               void
 Registers used:
		None
 Tracked objects:
		On entry : 
		On exit  : 
		Unchanged: 
 Data sizes:     COMRAM   BANK0   BANK1   BANK2   BANK3   BANK4   BANK5   BANK6   BANK7   BANK8   BANK9  BANK10  BANK11  BANK12
      Params:         0       0       0       0       0       0       0       0       0       0       0       0       0       0
      Locals:         0       0       0       0       0       0       0       0       0       0       0       0       0       0
      Temps:          0       0       0       0       0       0       0       0       0       0       0       0       0       0
      Totals:         0       0       0       0       0       0       0       0       0       0       0       0       0       0
Total ram usage:        0 bytes
 Hardware stack levels used:    1
 Hardware stack levels required when called:    7
 This function calls:
		Nothing
 This function is called by:
		_init_Timer0
 This function uses a non-reentrant model


 *************** function _cleanBuffer16bit *****************
 Defined at:
		line 89 in file "MISC.c"
 Parameters:    Size  Location     Type
  data            2   14[BANK1 ] PTR unsigned int 
		 -> IRRawCode(144), 
  count           2   16[BANK1 ] int 
 Auto vars:     Size  Location     Type
  i               1   21[BANK1 ] unsigned char 
 Return value:  Size  Location     Type
		None               void
 Registers used:
		wreg, fsr2l, fsr2h, status,2, status,0, prodl, prodh
 Tracked objects:
		On entry : 
		On exit  : 
		Unchanged: 
 Data sizes:     COMRAM   BANK0   BANK1   BANK2   BANK3   BANK4   BANK5   BANK6   BANK7   BANK8   BANK9  BANK10  BANK11  BANK12
      Params:         0       0       4       0       0       0       0       0       0       0       0       0       0       0
      Locals:         0       0       1       0       0       0       0       0       0       0       0       0       0       0
      Temps:          0       0       3       0       0       0       0       0       0       0       0       0       0       0
      Totals:         0       0       8       0       0       0       0       0       0       0       0       0       0       0
Total ram usage:        8 bytes
 Hardware stack levels used:    1
 Hardware stack levels required when called:    7
 This function calls:
		Nothing
 This function is called by:
		_init_IR
 This function uses a non-reentrant model


 *************** function _Start_Timer0 *****************
 Defined at:
		line 92 in file "Timer.c"
 Parameters:    Size  Location     Type
		None
 Auto vars:     Size  Location     Type
		None
 Return value:  Size  Location     Type
		None               void
 Registers used:
		None
 Tracked objects:
		On entry : 
		On exit  : 
		Unchanged: 
 Data sizes:     COMRAM   BANK0   BANK1   BANK2   BANK3   BANK4   BANK5   BANK6   BANK7   BANK8   BANK9  BANK10  BANK11  BANK12
      Params:         0       0       0       0       0       0       0       0       0       0       0       0       0       0
      Locals:         0       0       0       0       0       0       0       0       0       0       0       0       0       0
      Temps:          0       0       0       0       0       0       0       0       0       0       0       0       0       0
      Totals:         0       0       0       0       0       0       0       0       0       0       0       0       0       0
Total ram usage:        0 bytes
 Hardware stack levels used:    1
 Hardware stack levels required when called:    7
 This function calls:
		Nothing
 This function is called by:
		_init_IR
 This function uses a non-reentrant model


 *************** function _ReadIRpin *****************
 Defined at:
		line 95 in file "IR.c"
 Parameters:    Size  Location     Type
		None
 Auto vars:     Size  Location     Type
		None
 Return value:  Size  Location     Type
                  1    wreg      unsigned char 
 Registers used:
		wreg
 Tracked objects:
		On entry : 
		On exit  : 
		Unchanged: 
 Data sizes:     COMRAM   BANK0   BANK1   BANK2   BANK3   BANK4   BANK5   BANK6   BANK7   BANK8   BANK9  BANK10  BANK11  BANK12
      Params:         0       0       0       0       0       0       0       0       0       0       0       0       0       0
      Locals:         0       0       0       0       0       0       0       0       0       0       0       0       0       0
      Temps:          0       0       0       0       0       0       0       0       0       0       0       0       0       0
      Totals:         0       0       0       0       0       0       0       0       0       0       0       0       0       0
Total ram usage:        0 bytes
 Hardware stack levels used:    1
 Hardware stack levels required when called:    7
 This function calls:
		Nothing
 This function is called by:
		_init_IR
 This function uses a non-reentrant model


 *************** function _SyncEEPROMandGLOBAL *****************
 Defined at:
		line 260 in file "EEPROM.c"
 Parameters:    Size  Location     Type
		None
 Auto vars:     Size  Location     Type
  Temp            9   68[BANK1 ] struct EEdata
 Return value:  Size  Location     Type
		None               void
 Registers used:
		wreg, fsr0l, fsr0h, fsr2l, fsr2h, status,2, status,0, cstack
 Tracked objects:
		On entry : 
		On exit  : 
		Unchanged: 
 Data sizes:     COMRAM   BANK0   BANK1   BANK2   BANK3   BANK4   BANK5   BANK6   BANK7   BANK8   BANK9  BANK10  BANK11  BANK12
      Params:         0       0       0       0       0       0       0       0       0       0       0       0       0       0
      Locals:         0       0       9       0       0       0       0       0       0       0       0       0       0       0
      Temps:          0       0       0       0       0       0       0       0       0       0       0       0       0       0
      Totals:         0       0       9       0       0       0       0       0       0       0       0       0       0       0
Total ram usage:        9 bytes
 Hardware stack levels used:    1
 Hardware stack levels required when called:   10
 This function calls:
		_GetEEPROM
 This function is called by:
		_main
 This function uses a non-reentrant model


 *************** function _GetEEPROM *****************
 Defined at:
		line 211 in file "EEPROM.c"
 Parameters:    Size  Location     Type
		None
 Auto vars:     Size  Location     Type
  Temp            9   59[BANK1 ] struct EEdata
 Return value:  Size  Location     Type
                  9   50[BANK1 ] struct EEdata
 Registers used:
		wreg, fsr0l, fsr0h, fsr2l, fsr2h, status,2, status,0, cstack
 Tracked objects:
		On entry : 
		On exit  : 
		Unchanged: 
 Data sizes:     COMRAM   BANK0   BANK1   BANK2   BANK3   BANK4   BANK5   BANK6   BANK7   BANK8   BANK9  BANK10  BANK11  BANK12
      Params:         0       0       9       0       0       0       0       0       0       0       0       0       0       0
      Locals:         0       0       9       0       0       0       0       0       0       0       0       0       0       0
      Temps:          0       0       0       0       0       0       0       0       0       0       0       0       0       0
      Totals:         0       0      18       0       0       0       0       0       0       0       0       0       0       0
Total ram usage:       18 bytes
 Hardware stack levels used:    1
 Hardware stack levels required when called:    9
 This function calls:
		_GetMemoryBaud
		_GetMemoryChar
		_GetMemoryLong
 This function is called by:
		_SyncEEPROMandGLOBAL
 This function uses a non-reentrant model


 *************** function _GetMemoryChar *****************
 Defined at:
		line 380 in file "EEPROM.c"
 Parameters:    Size  Location     Type
  AddressFirst    1    wreg     unsigned char 
 Auto vars:     Size  Location     Type
  AddressFirst    1   21[BANK1 ] unsigned char 
  H               1   22[BANK1 ] unsigned char 
 Return value:  Size  Location     Type
                  4   17[BANK1 ] unsigned long 
 Registers used:
		wreg, status,2, status,0, cstack
 Tracked objects:
		On entry : 
		On exit  : 
		Unchanged: 
 Data sizes:     COMRAM   BANK0   BANK1   BANK2   BANK3   BANK4   BANK5   BANK6   BANK7   BANK8   BANK9  BANK10  BANK11  BANK12
      Params:         0       0       4       0       0       0       0       0       0       0       0       0       0       0
      Locals:         0       0       2       0       0       0       0       0       0       0       0       0       0       0
      Temps:          0       0       0       0       0       0       0       0       0       0       0       0       0       0
      Totals:         0       0       6       0       0       0       0       0       0       0       0       0       0       0
Total ram usage:        6 bytes
 Hardware stack levels used:    1
 Hardware stack levels required when called:    8
 This function calls:
		_ReadEEPROM_1Byte
 This function is called by:
		_GetEEPROM
		_SetMemoryChar
 This function uses a non-reentrant model


 *************** function _SetEEPROM *****************
 Defined at:
		line 225 in file "EEPROM.c"
 Parameters:    Size  Location     Type
  Temp            9   67[BANK1 ] struct EEdata
  burn            4   76[BANK1 ] unsigned long 
 Auto vars:     Size  Location     Type
  fail            4   80[BANK1 ] unsigned long 
 Return value:  Size  Location     Type
                  4   67[BANK1 ] unsigned long 
 Registers used:
		wreg, status,2, status,0, cstack
 Tracked objects:
		On entry : 
		On exit  : 
		Unchanged: 
 Data sizes:     COMRAM   BANK0   BANK1   BANK2   BANK3   BANK4   BANK5   BANK6   BANK7   BANK8   BANK9  BANK10  BANK11  BANK12
      Params:         0       0      13       0       0       0       0       0       0       0       0       0       0       0
      Locals:         0       0       4       0       0       0       0       0       0       0       0       0       0       0
      Temps:          0       0       0       0       0       0       0       0       0       0       0       0       0       0
      Totals:         0       0      17       0       0       0       0       0       0       0       0       0       0       0
Total ram usage:       17 bytes
 Hardware stack levels used:    1
 Hardware stack levels required when called:   10
 This function calls:
		_SetMemoryBaud
		_SetMemoryLong
		_SetMemoryParity
 This function is called by:
		_main
 This function uses a non-reentrant model


 *************** function _SetMemoryLong *****************
 Defined at:
		line 300 in file "EEPROM.c"
 Parameters:    Size  Location     Type
  Data            4   50[BANK1 ] unsigned long 
  AddressFirst    1   54[BANK1 ] unsigned char 
 Auto vars:     Size  Location     Type
  Test            4   59[BANK1 ] unsigned long 
  L               1   66[BANK1 ] unsigned char 
  ML              1   65[BANK1 ] unsigned char 
  MH              1   64[BANK1 ] unsigned char 
  H               1   63[BANK1 ] unsigned char 
 Return value:  Size  Location     Type
                  1    wreg      unsigned char 
 Registers used:
		wreg, status,2, status,0, cstack
 Tracked objects:
		On entry : 
		On exit  : 
		Unchanged: 
 Data sizes:     COMRAM   BANK0   BANK1   BANK2   BANK3   BANK4   BANK5   BANK6   BANK7   BANK8   BANK9  BANK10  BANK11  BANK12
      Params:         0       0       5       0       0       0       0       0       0       0       0       0       0       0
      Locals:         0       0       8       0       0       0       0       0       0       0       0       0       0       0
      Temps:          0       0       4       0       0       0       0       0       0       0       0       0       0       0
      Totals:         0       0      17       0       0       0       0       0       0       0       0       0       0       0
Total ram usage:       17 bytes
 Hardware stack levels used:    1
 Hardware stack levels required when called:    9
 This function calls:
		_GetMemoryLong
		_WriteEEPROM_1Byte
 This function is called by:
		_SetEEPROM
 This function uses a non-reentrant model


 *************** function _GetMemoryLong *****************
 Defined at:
		line 277 in file "EEPROM.c"
 Parameters:    Size  Location     Type
  AddressFirst    1    wreg     unsigned char 
 Auto vars:     Size  Location     Type
  AddressFirst    1   49[BANK1 ] unsigned char 
  temp            4   41[BANK1 ] unsigned long 
  L               1   48[BANK1 ] unsigned char 
  ML              1   47[BANK1 ] unsigned char 
  MH              1   46[BANK1 ] unsigned char 
  H               1   45[BANK1 ] unsigned char 
 Return value:  Size  Location     Type
                  4   17[BANK1 ] unsigned long 
 Registers used:
		wreg, status,2, status,0, cstack
 Tracked objects:
		On entry : 
		On exit  : 
		Unchanged: 
 Data sizes:     COMRAM   BANK0   BANK1   BANK2   BANK3   BANK4   BANK5   BANK6   BANK7   BANK8   BANK9  BANK10  BANK11  BANK12
      Params:         0       0       4       0       0       0       0       0       0       0       0       0       0       0
      Locals:         0       0       9       0       0       0       0       0       0       0       0       0       0       0
      Temps:          0       0      20       0       0       0       0       0       0       0       0       0       0       0
      Totals:         0       0      33       0       0       0       0       0       0       0       0       0       0       0
Total ram usage:       33 bytes
 Hardware stack levels used:    1
 Hardware stack levels required when called:    8
 This function calls:
		_ReadEEPROM_1Byte
 This function is called by:
		_GetEEPROM
		_SetMemoryLong
 This function uses a non-reentrant model


 *************** function _RTC_INIT *****************
 Defined at:
		line 57 in file "RTC.c"
 Parameters:    Size  Location     Type
		None
 Auto vars:     Size  Location     Type
		None
 Return value:  Size  Location     Type
		None               void
 Registers used:
		wreg, fsr0l, fsr0h, status,2, status,0, tblptrl, tblptrh, tblptru, cstack
 Tracked objects:
		On entry : 
		On exit  : 
		Unchanged: 
 Data sizes:     COMRAM   BANK0   BANK1   BANK2   BANK3   BANK4   BANK5   BANK6   BANK7   BANK8   BANK9  BANK10  BANK11  BANK12
      Params:         0       0       0       0       0       0       0       0       0       0       0       0       0       0
      Locals:         0       0       0       0       0       0       0       0       0       0       0       0       0       0
      Temps:          0       0       0       0       0       0       0       0       0       0       0       0       0       0
      Totals:         0       0       0       0       0       0       0       0       0       0       0       0       0       0
Total ram usage:        0 bytes
 Hardware stack levels used:    1
 Hardware stack levels required when called:   11
 This function calls:
		_InternalADC_Read
		_RTC_Clock_Enable
		_RTC_TIME_NONMilitary
 This function is called by:
		_main
 This function uses a non-reentrant model


 *************** function _RTC_TIME_NONMilitary *****************
 Defined at:
		line 89 in file "RTC.c"
 Parameters:    Size  Location     Type
		None
 Auto vars:     Size  Location     Type
  temphours       2   27[BANK1 ] int 
  Error           2   25[BANK1 ] int 
 Return value:  Size  Location     Type
		None               void
 Registers used:
		wreg, status,2, status,0, cstack
 Tracked objects:
		On entry : 
		On exit  : 
		Unchanged: 
 Data sizes:     COMRAM   BANK0   BANK1   BANK2   BANK3   BANK4   BANK5   BANK6   BANK7   BANK8   BANK9  BANK10  BANK11  BANK12
      Params:         0       0       0       0       0       0       0       0       0       0       0       0       0       0
      Locals:         0       0       4       0       0       0       0       0       0       0       0       0       0       0
      Temps:          0       0       1       0       0       0       0       0       0       0       0       0       0       0
      Totals:         0       0       5       0       0       0       0       0       0       0       0       0       0       0
Total ram usage:        5 bytes
 Hardware stack levels used:    1
 Hardware stack levels required when called:   10
 This function calls:
		_I2C_Read_At_Address
		_I2C_Write_At_Address
		_ResetI2C
 This function is called by:
		_RTC_INIT
 This function uses a non-reentrant model


 *************** function _RTC_Clock_Enable *****************
 Defined at:
		line 70 in file "RTC.c"
 Parameters:    Size  Location     Type
		None
 Auto vars:     Size  Location     Type
  tempSeconds     2   24[BANK1 ] int 
  Error           1   26[BANK1 ] char 
 Return value:  Size  Location     Type
		None               void
 Registers used:
		wreg, status,2, status,0, cstack
 Tracked objects:
		On entry : 
		On exit  : 
		Unchanged: 
 Data sizes:     COMRAM   BANK0   BANK1   BANK2   BANK3   BANK4   BANK5   BANK6   BANK7   BANK8   BANK9  BANK10  BANK11  BANK12
      Params:         0       0       0       0       0       0       0       0       0       0       0       0       0       0
      Locals:         0       0       3       0       0       0       0       0       0       0       0       0       0       0
      Temps:          0       0       0       0       0       0       0       0       0       0       0       0       0       0
      Totals:         0       0       3       0       0       0       0       0       0       0       0       0       0       0
Total ram usage:        3 bytes
 Hardware stack levels used:    1
 Hardware stack levels required when called:   10
 This function calls:
		_I2C_Read_At_Address
		_I2C_Write_At_Address
		_ResetI2C
 This function is called by:
		_RTC_INIT
 This function uses a non-reentrant model


 *************** function _I2C_Read_At_Address *****************
 Defined at:
		line 224 in file "I2C.c"
 Parameters:    Size  Location     Type
  I2Caddress      1    wreg     unsigned char 
  Register        1   16[BANK1 ] unsigned char 
 Auto vars:     Size  Location     Type
  I2Caddress      1   18[BANK1 ] unsigned char 
 Return value:  Size  Location     Type
                  2   16[BANK1 ] int 
 Registers used:
		wreg, status,2, status,0, cstack
 Tracked objects:
		On entry : 
		On exit  : 
		Unchanged: 
 Data sizes:     COMRAM   BANK0   BANK1   BANK2   BANK3   BANK4   BANK5   BANK6   BANK7   BANK8   BANK9  BANK10  BANK11  BANK12
      Params:         0       0       2       0       0       0       0       0       0       0       0       0       0       0
      Locals:         0       0       1       0       0       0       0       0       0       0       0       0       0       0
      Temps:          0       0       0       0       0       0       0       0       0       0       0       0       0       0
      Totals:         0       0       3       0       0       0       0       0       0       0       0       0       0       0
Total ram usage:        3 bytes
 Hardware stack levels used:    1
 Hardware stack levels required when called:    9
 This function calls:
		_IdleI2C
		_WriteI2C
 This function is called by:
		_RTC_Clock_Enable
		_RTC_TIME_NONMilitary
		_RTC_Clock_Disable
		_READ_RTC_SECONDS
 This function uses a non-reentrant model


 *************** function _PWM_init *****************
 Defined at:
		line 54 in file "PWM.c"
 Parameters:    Size  Location     Type
		None
 Auto vars:     Size  Location     Type
		None
 Return value:  Size  Location     Type
		None               void
 Registers used:
		wreg, status,2, status,0, prodl, prodh, cstack
 Tracked objects:
		On entry : 
		On exit  : 
		Unchanged: 
 Data sizes:     COMRAM   BANK0   BANK1   BANK2   BANK3   BANK4   BANK5   BANK6   BANK7   BANK8   BANK9  BANK10  BANK11  BANK12
      Params:         0       0       0       0       0       0       0       0       0       0       0       0       0       0
      Locals:         0       0       0       0       0       0       0       0       0       0       0       0       0       0
      Temps:          0       0       0       0       0       0       0       0       0       0       0       0       0       0
      Totals:         0       0       0       0       0       0       0       0       0       0       0       0       0       0
Total ram usage:        0 bytes
 Hardware stack levels used:    1
 Hardware stack levels required when called:   10
 This function calls:
		_SetDuty
		_SetFreq
 This function is called by:
		_main
 This function uses a non-reentrant model


 *************** function _SetFreq *****************
 Defined at:
		line 144 in file "PWM.c"
 Parameters:    Size  Location     Type
  freq            2   34[BANK1 ] unsigned int 
 Auto vars:     Size  Location     Type
  temp            1   36[BANK1 ] unsigned char 
 Return value:  Size  Location     Type
		None               void
 Registers used:
		wreg, status,2, status,0, prodl, prodh, cstack
 Tracked objects:
		On entry : 
		On exit  : 
		Unchanged: 
 Data sizes:     COMRAM   BANK0   BANK1   BANK2   BANK3   BANK4   BANK5   BANK6   BANK7   BANK8   BANK9  BANK10  BANK11  BANK12
      Params:         0       0       2       0       0       0       0       0       0       0       0       0       0       0
      Locals:         0       0       1       0       0       0       0       0       0       0       0       0       0       0
      Temps:          0       0       0       0       0       0       0       0       0       0       0       0       0       0
      Totals:         0       0       3       0       0       0       0       0       0       0       0       0       0       0
Total ram usage:        3 bytes
 Hardware stack levels used:    1
 Hardware stack levels required when called:    8
 This function calls:
		___aldiv
		___wmul
 This function is called by:
		_PWM_init
 This function uses a non-reentrant model


 *************** function ___aldiv *****************
 Defined at:
		line 8 in file "C:\Program Files (x86)\Microchip\xc8\v1.34\sources\common\aldiv.c"
 Parameters:    Size  Location     Type
  dividend        4   20[BANK1 ] long 
  divisor         4   24[BANK1 ] long 
 Auto vars:     Size  Location     Type
  quotient        4   30[BANK1 ] long 
  sign            1   29[BANK1 ] unsigned char 
  counter         1   28[BANK1 ] unsigned char 
 Return value:  Size  Location     Type
                  4   20[BANK1 ] long 
 Registers used:
		wreg, status,2, status,0
 Tracked objects:
		On entry : 
		On exit  : 
		Unchanged: 
 Data sizes:     COMRAM   BANK0   BANK1   BANK2   BANK3   BANK4   BANK5   BANK6   BANK7   BANK8   BANK9  BANK10  BANK11  BANK12
      Params:         0       0       8       0       0       0       0       0       0       0       0       0       0       0
      Locals:         0       0       6       0       0       0       0       0       0       0       0       0       0       0
      Temps:          0       0       0       0       0       0       0       0       0       0       0       0       0       0
      Totals:         0       0      14       0       0       0       0       0       0       0       0       0       0       0
Total ram usage:       14 bytes
 Hardware stack levels used:    1
 Hardware stack levels required when called:    7
 This function calls:
		Nothing
 This function is called by:
		_SetFreq
 This function uses a non-reentrant model


 *************** function _LCDPrintChar *****************
 Defined at:
		line 271 in file "LCD.c"
 Parameters:    Size  Location     Type
  character       1    wreg     unsigned char 
 Auto vars:     Size  Location     Type
  character       1   28[BANK1 ] unsigned char 
 Return value:  Size  Location     Type
		None               void
 Registers used:
		wreg, status,2, status,0, cstack
 Tracked objects:
		On entry : 
		On exit  : 
		Unchanged: 
 Data sizes:     COMRAM   BANK0   BANK1   BANK2   BANK3   BANK4   BANK5   BANK6   BANK7   BANK8   BANK9  BANK10  BANK11  BANK12
      Params:         0       0       0       0       0       0       0       0       0       0       0       0       0       0
      Locals:         0       0       1       0       0       0       0       0       0       0       0       0       0       0
      Temps:          0       0       0       0       0       0       0       0       0       0       0       0       0       0
      Totals:         0       0       1       0       0       0       0       0       0       0       0       0       0       0
Total ram usage:        1 bytes
 Hardware stack levels used:    1
 Hardware stack levels required when called:   10
 This function calls:
		_SendLCDbyte
 This function is called by:
		_main
 This function uses a non-reentrant model


 *************** function _InitApp *****************
 Defined at:
		line 53 in file "user.c"
 Parameters:    Size  Location     Type
		None
 Auto vars:     Size  Location     Type
		None
 Return value:  Size  Location     Type
		None               void
 Registers used:
		wreg, status,2, status,0, cstack
 Tracked objects:
		On entry : 
		On exit  : 
		Unchanged: 
 Data sizes:     COMRAM   BANK0   BANK1   BANK2   BANK3   BANK4   BANK5   BANK6   BANK7   BANK8   BANK9  BANK10  BANK11  BANK12
      Params:         0       0       0       0       0       0       0       0       0       0       0       0       0       0
      Locals:         0       0       0       0       0       0       0       0       0       0       0       0       0       0
      Temps:          0       0       0       0       0       0       0       0       0       0       0       0       0       0
      Totals:         0       0       0       0       0       0       0       0       0       0       0       0       0       0
Total ram usage:        0 bytes
 Hardware stack levels used:    1
 Hardware stack levels required when called:    8
 This function calls:
		_delayUS
 This function is called by:
		_main
 This function uses a non-reentrant model


 *************** function _EnableInternalADC *****************
 Defined at:
		line 53 in file "ADC.c"
 Parameters:    Size  Location     Type
  channels        1    wreg     unsigned char 
 Auto vars:     Size  Location     Type
  channels        1   15[BANK1 ] unsigned char 
  config          1   14[BANK1 ] unsigned char 
 Return value:  Size  Location     Type
		None               void
 Registers used:
		wreg, status,2, status,0
 Tracked objects:
		On entry : 
		On exit  : 
		Unchanged: 
 Data sizes:     COMRAM   BANK0   BANK1   BANK2   BANK3   BANK4   BANK5   BANK6   BANK7   BANK8   BANK9  BANK10  BANK11  BANK12
      Params:         0       0       0       0       0       0       0       0       0       0       0       0       0       0
      Locals:         0       0       2       0       0       0       0       0       0       0       0       0       0       0
      Temps:          0       0       0       0       0       0       0       0       0       0       0       0       0       0
      Totals:         0       0       2       0       0       0       0       0       0       0       0       0       0       0
Total ram usage:        2 bytes
 Hardware stack levels used:    1
 Hardware stack levels required when called:    7
 This function calls:
		Nothing
 This function is called by:
		_main
 This function uses a non-reentrant model


 *************** function _ContrastPWM_init *****************
 Defined at:
		line 81 in file "PWM.c"
 Parameters:    Size  Location     Type
		None
 Auto vars:     Size  Location     Type
		None
 Return value:  Size  Location     Type
		None               void
 Registers used:
		wreg, status,2, status,0, cstack
 Tracked objects:
		On entry : 
		On exit  : 
		Unchanged: 
 Data sizes:     COMRAM   BANK0   BANK1   BANK2   BANK3   BANK4   BANK5   BANK6   BANK7   BANK8   BANK9  BANK10  BANK11  BANK12
      Params:         0       0       0       0       0       0       0       0       0       0       0       0       0       0
      Locals:         0       0       0       0       0       0       0       0       0       0       0       0       0       0
      Temps:          0       0       0       0       0       0       0       0       0       0       0       0       0       0
      Totals:         0       0       0       0       0       0       0       0       0       0       0       0       0       0
Total ram usage:        0 bytes
 Hardware stack levels used:    1
 Hardware stack levels required when called:   10
 This function calls:
		_SetDuty
 This function is called by:
		_main
 This function uses a non-reentrant model


 *************** function _ConfigureOscillator *****************
 Defined at:
		line 52 in file "system.c"
 Parameters:    Size  Location     Type
		None
 Auto vars:     Size  Location     Type
		None
 Return value:  Size  Location     Type
		None               void
 Registers used:
		None
 Tracked objects:
		On entry : 
		On exit  : 
		Unchanged: 
 Data sizes:     COMRAM   BANK0   BANK1   BANK2   BANK3   BANK4   BANK5   BANK6   BANK7   BANK8   BANK9  BANK10  BANK11  BANK12
      Params:         0       0       0       0       0       0       0       0       0       0       0       0       0       0
      Locals:         0       0       0       0       0       0       0       0       0       0       0       0       0       0
      Temps:          0       0       0       0       0       0       0       0       0       0       0       0       0       0
      Totals:         0       0       0       0       0       0       0       0       0       0       0       0       0       0
Total ram usage:        0 bytes
 Hardware stack levels used:    1
 Hardware stack levels required when called:    7
 This function calls:
		Nothing
 This function is called by:
		_main
 This function uses a non-reentrant model


 *************** function _Command *****************
 Defined at:
		line 67 in file "StringCommand.c"
 Parameters:    Size  Location     Type
  Input           2  136[BANK1 ] PTR unsigned char 
		 -> Rxdata(100), 
 Auto vars:     Size  Location     Type
  buf           200    0[BANK2 ] unsigned char [200]
  tempLONG        4  222[BANK2 ] long 
  PARITYtemp      4  212[BANK2 ] unsigned long 
  BAUDtemp        4  206[BANK2 ] unsigned long 
  duty            2  220[BANK2 ] int 
  channel         2  218[BANK2 ] int 
  contrast        2  216[BANK2 ] int 
  RTC_Battery_    2  210[BANK2 ] unsigned int 
  RTC_Battery_    2  204[BANK2 ] unsigned int 
  RTC_Battery_    2  202[BANK2 ] unsigned int 
  ADC_Value       2  200[BANK2 ] unsigned int 
 Return value:  Size  Location     Type
                  1    wreg      unsigned char 
 Registers used:
		wreg, fsr0l, fsr0h, fsr1l, fsr1h, fsr2l, fsr2h, status,2, status,0, tblptrl, tblptrh, tblptru, prodl, prodh, cstack
 Tracked objects:
		On entry : 
		On exit  : 
		Unchanged: 
 Data sizes:     COMRAM   BANK0   BANK1   BANK2   BANK3   BANK4   BANK5   BANK6   BANK7   BANK8   BANK9  BANK10  BANK11  BANK12
      Params:         0       0       2       0       0       0       0       0       0       0       0       0       0       0
      Locals:         0       0       0     226       0       0       0       0       0       0       0       0       0       0
      Temps:          0       0       0       0       0       0       0       0       0       0       0       0       0       0
      Totals:         0       0       2     226       0       0       0       0       0       0       0       0       0       0
Total ram usage:      228 bytes
 Hardware stack levels used:    1
 Hardware stack levels required when called:   12
 This function calls:
		_GetBaud
		_GetEnteredNumber
		_ISNUMBER
		_InternalADC_Read
		_LCDPrintString
		_LCD_Scroll
		_LCDdisplayFeedback
		_Parse_Time
		_READ_RTC_TIME
		_RemoveSpaces
		_SET_RTC_TIME
		_Send_Config1
		_Send_Config2
		_SetBaud
		_SetContrast
		_SetDuty
		_SetLCDcursor
		_SprintDate
		_StartsWith
		_StringAddEqual
		_StringContains
		_StringMatch
		_UARTstring
		___ftdiv
		___ftmul
		___fttol
		___lwmod
		___lwtoft
		_cleanBuffer
		_delayUS
		_lowercase
		_sprintf
 This function is called by:
		_main
 This function uses a non-reentrant model


 *************** function _lowercase *****************
 Defined at:
		line 297 in file "MISC.c"
 Parameters:    Size  Location     Type
  Input           2   14[BANK1 ] PTR unsigned char 
		 -> Rxdata(100), 
 Auto vars:     Size  Location     Type
  i               1   17[BANK1 ] unsigned char 
 Return value:  Size  Location     Type
		None               void
 Registers used:
		wreg, fsr2l, fsr2h, status,2, status,0, prodl, prodh
 Tracked objects:
		On entry : 
		On exit  : 
		Unchanged: 
 Data sizes:     COMRAM   BANK0   BANK1   BANK2   BANK3   BANK4   BANK5   BANK6   BANK7   BANK8   BANK9  BANK10  BANK11  BANK12
      Params:         0       0       2       0       0       0       0       0       0       0       0       0       0       0
      Locals:         0       0       1       0       0       0       0       0       0       0       0       0       0       0
      Temps:          0       0       1       0       0       0       0       0       0       0       0       0       0       0
      Totals:         0       0       4       0       0       0       0       0       0       0       0       0       0       0
Total ram usage:        4 bytes
 Hardware stack levels used:    1
 Hardware stack levels required when called:    7
 This function calls:
		Nothing
 This function is called by:
		_Command
 This function uses a non-reentrant model


 *************** function ___lwtoft *****************
 Defined at:
		line 28 in file "C:\Program Files (x86)\Microchip\xc8\v1.34\sources\common\lwtoft.c"
 Parameters:    Size  Location     Type
  c               2   22[BANK1 ] unsigned int 
 Auto vars:     Size  Location     Type
		None
 Return value:  Size  Location     Type
                  3   22[BANK1 ] float 
 Registers used:
		wreg, status,2, status,0, cstack
 Tracked objects:
		On entry : 
		On exit  : 
		Unchanged: 
 Data sizes:     COMRAM   BANK0   BANK1   BANK2   BANK3   BANK4   BANK5   BANK6   BANK7   BANK8   BANK9  BANK10  BANK11  BANK12
      Params:         0       0       3       0       0       0       0       0       0       0       0       0       0       0
      Locals:         0       0       0       0       0       0       0       0       0       0       0       0       0       0
      Temps:          0       0       0       0       0       0       0       0       0       0       0       0       0       0
      Totals:         0       0       3       0       0       0       0       0       0       0       0       0       0       0
Total ram usage:        3 bytes
 Hardware stack levels used:    1
 Hardware stack levels required when called:    8
 This function calls:
		___ftpack
 This function is called by:
		_Command
 This function uses a non-reentrant model


 *************** function ___lwmod *****************
 Defined at:
		line 8 in file "C:\Program Files (x86)\Microchip\xc8\v1.34\sources\common\lwmod.c"
 Parameters:    Size  Location     Type
  dividend        2   14[BANK1 ] unsigned int 
  divisor         2   16[BANK1 ] unsigned int 
 Auto vars:     Size  Location     Type
  counter         1   18[BANK1 ] unsigned char 
 Return value:  Size  Location     Type
                  2   14[BANK1 ] unsigned int 
 Registers used:
		wreg, status,2, status,0
 Tracked objects:
		On entry : 
		On exit  : 
		Unchanged: 
 Data sizes:     COMRAM   BANK0   BANK1   BANK2   BANK3   BANK4   BANK5   BANK6   BANK7   BANK8   BANK9  BANK10  BANK11  BANK12
      Params:         0       0       4       0       0       0       0       0       0       0       0       0       0       0
      Locals:         0       0       1       0       0       0       0       0       0       0       0       0       0       0
      Temps:          0       0       0       0       0       0       0       0       0       0       0       0       0       0
      Totals:         0       0       5       0       0       0       0       0       0       0       0       0       0       0
Total ram usage:        5 bytes
 Hardware stack levels used:    1
 Hardware stack levels required when called:    7
 This function calls:
		Nothing
 This function is called by:
		_Command
 This function uses a non-reentrant model


 *************** function _StringMatch *****************
 Defined at:
		line 126 in file "MISC.c"
 Parameters:    Size  Location     Type
  This            2   14[BANK1 ] PTR unsigned char 
		 -> Rxdata(100), 
  That            2   16[BANK1 ] PTR const unsigned char 
		 -> STR_299(6), STR_271(2), STR_258(18), STR_255(17), 
		 -> STR_112(18), STR_109(17), STR_106(15), STR_103(14), 
		 -> STR_100(17), STR_99(16), STR_79(18), STR_76(17), 
		 -> STR_73(20), STR_72(19), STR_55(9), STR_52(8), 
		 -> STR_49(5), STR_46(9), STR_43(8), STR_40(5), 
		 -> STR_37(2), 
 Auto vars:     Size  Location     Type
		None
 Return value:  Size  Location     Type
                  1    wreg      unsigned char 
 Registers used:
		wreg, fsr2l, fsr2h, status,2, status,0, tblptrl, tblptrh, tblptru
 Tracked objects:
		On entry : 
		On exit  : 
		Unchanged: 
 Data sizes:     COMRAM   BANK0   BANK1   BANK2   BANK3   BANK4   BANK5   BANK6   BANK7   BANK8   BANK9  BANK10  BANK11  BANK12
      Params:         0       0       4       0       0       0       0       0       0       0       0       0       0       0
      Locals:         0       0       0       0       0       0       0       0       0       0       0       0       0       0
      Temps:          0       0       1       0       0       0       0       0       0       0       0       0       0       0
      Totals:         0       0       5       0       0       0       0       0       0       0       0       0       0       0
Total ram usage:        5 bytes
 Hardware stack levels used:    1
 Hardware stack levels required when called:    7
 This function calls:
		Nothing
 This function is called by:
		_Command
 This function uses a non-reentrant model


 *************** function _StringContains *****************
 Defined at:
		line 153 in file "MISC.c"
 Parameters:    Size  Location     Type
  This            2   14[BANK1 ] PTR unsigned char 
		 -> Rxdata(100), 
  That            2   16[BANK1 ] PTR const unsigned char 
		 -> STR_314(2), STR_313(14), STR_312(7), STR_310(13), 
		 -> STR_309(12), STR_308(18), STR_307(17), STR_306(16), 
		 -> STR_305(2), STR_304(11), STR_303(8), STR_302(8), 
		 -> STR_301(16), STR_254(2), STR_230(4), STR_223(5), 
		 -> STR_220(8), STR_219(2), STR_199(2), STR_198(2), 
		 -> STR_182(2), STR_181(2), STR_162(2), STR_159(2), 
		 -> STR_143(5), STR_142(6), STR_139(4), STR_138(6), 
		 -> STR_135(2), STR_134(6), STR_133(2), STR_132(10), 
		 -> STR_131(6), STR_130(6), STR_98(4), STR_97(6), 
		 -> STR_96(2), STR_71(2), STR_39(2), 
 Auto vars:     Size  Location     Type
		None
 Return value:  Size  Location     Type
                  1    wreg      unsigned char 
 Registers used:
		wreg, fsr2l, fsr2h, status,2, status,0, tblptrl, tblptrh, tblptru
 Tracked objects:
		On entry : 
		On exit  : 
		Unchanged: 
 Data sizes:     COMRAM   BANK0   BANK1   BANK2   BANK3   BANK4   BANK5   BANK6   BANK7   BANK8   BANK9  BANK10  BANK11  BANK12
      Params:         0       0       4       0       0       0       0       0       0       0       0       0       0       0
      Locals:         0       0       0       0       0       0       0       0       0       0       0       0       0       0
      Temps:          0       0       1       0       0       0       0       0       0       0       0       0       0       0
      Totals:         0       0       5       0       0       0       0       0       0       0       0       0       0       0
Total ram usage:        5 bytes
 Hardware stack levels used:    1
 Hardware stack levels required when called:    7
 This function calls:
		Nothing
 This function is called by:
		_Command
 This function uses a non-reentrant model


 *************** function _StringAddEqual *****************
 Defined at:
		line 315 in file "MISC.c"
 Parameters:    Size  Location     Type
  Input           2   29[BANK1 ] PTR unsigned char 
		 -> Rxdata(100), 
 Auto vars:     Size  Location     Type
  temp          100   33[BANK1 ] unsigned char [100]
  j               1  135[BANK1 ] unsigned char 
  i               1  134[BANK1 ] unsigned char 
  firstnumber     1  133[BANK1 ] unsigned char 
 Return value:  Size  Location     Type
                  1    wreg      unsigned char 
 Registers used:
		wreg, fsr0l, fsr0h, fsr1l, fsr1h, fsr2l, fsr2h, status,2, status,0, tblptrl, tblptrh, tblptru, prodl, prodh, cstack
 Tracked objects:
		On entry : 
		On exit  : 
		Unchanged: 
 Data sizes:     COMRAM   BANK0   BANK1   BANK2   BANK3   BANK4   BANK5   BANK6   BANK7   BANK8   BANK9  BANK10  BANK11  BANK12
      Params:         0       0       2       0       0       0       0       0       0       0       0       0       0       0
      Locals:         0       0     103       0       0       0       0       0       0       0       0       0       0       0
      Temps:          0       0       2       0       0       0       0       0       0       0       0       0       0       0
      Totals:         0       0     107       0       0       0       0       0       0       0       0       0       0       0
Total ram usage:      107 bytes
 Hardware stack levels used:    1
 Hardware stack levels required when called:    9
 This function calls:
		_BufferCopy
		_cleanBuffer
 This function is called by:
		_Command
 This function uses a non-reentrant model


 *************** function _StartsWith *****************
 Defined at:
		line 181 in file "MISC.c"
 Parameters:    Size  Location     Type
  This            2   14[BANK1 ] PTR unsigned char 
		 -> Rxdata(100), 
  That            2   16[BANK1 ] PTR const unsigned char 
		 -> STR_253(4), STR_218(4), STR_197(4), STR_180(9), 
		 -> STR_161(17), STR_160(7), STR_158(4), STR_95(8), 
		 -> STR_70(11), STR_38(4), 
 Auto vars:     Size  Location     Type
		None
 Return value:  Size  Location     Type
                  1    wreg      unsigned char 
 Registers used:
		wreg, fsr2l, fsr2h, status,2, status,0, tblptrl, tblptrh, tblptru
 Tracked objects:
		On entry : 
		On exit  : 
		Unchanged: 
 Data sizes:     COMRAM   BANK0   BANK1   BANK2   BANK3   BANK4   BANK5   BANK6   BANK7   BANK8   BANK9  BANK10  BANK11  BANK12
      Params:         0       0       4       0       0       0       0       0       0       0       0       0       0       0
      Locals:         0       0       0       0       0       0       0       0       0       0       0       0       0       0
      Temps:          0       0       1       0       0       0       0       0       0       0       0       0       0       0
      Totals:         0       0       5       0       0       0       0       0       0       0       0       0       0       0
Total ram usage:        5 bytes
 Hardware stack levels used:    1
 Hardware stack levels required when called:    7
 This function calls:
		Nothing
 This function is called by:
		_Command
 This function uses a non-reentrant model


 *************** function _SprintDate *****************
 Defined at:
		line 254 in file "RTC.c"
 Parameters:    Size  Location     Type
  ReturnBuf       2   80[BANK1 ] PTR unsigned char 
		 -> Command@buf(200), 
  DisplayTime     9   82[BANK1 ] struct TIME
  Military        1   91[BANK1 ] unsigned char 
 Auto vars:     Size  Location     Type
		None
 Return value:  Size  Location     Type
		None               void
 Registers used:
		wreg, fsr1l, fsr1h, fsr2l, fsr2h, status,2, status,0, tblptrl, tblptrh, tblptru, prodl, prodh, cstack
 Tracked objects:
		On entry : 
		On exit  : 
		Unchanged: 
 Data sizes:     COMRAM   BANK0   BANK1   BANK2   BANK3   BANK4   BANK5   BANK6   BANK7   BANK8   BANK9  BANK10  BANK11  BANK12
      Params:         0       0      12       0       0       0       0       0       0       0       0       0       0       0
      Locals:         0       0       0       0       0       0       0       0       0       0       0       0       0       0
      Temps:          0       0       0       0       0       0       0       0       0       0       0       0       0       0
      Totals:         0       0      12       0       0       0       0       0       0       0       0       0       0       0
Total ram usage:       12 bytes
 Hardware stack levels used:    1
 Hardware stack levels required when called:    9
 This function calls:
		_sprintf
 This function is called by:
		_Command
 This function uses a non-reentrant model


 *************** function _SetDuty *****************
 Defined at:
		line 120 in file "PWM.c"
 Parameters:    Size  Location     Type
  Duty            1    wreg     unsigned char 
 Auto vars:     Size  Location     Type
  Duty            1   71[BANK1 ] unsigned char 
  tempPR2         3   72[BANK1 ] float 
  temp            2   77[BANK1 ] unsigned int 
  LSB             1   76[BANK1 ] unsigned char 
  MSB             1   75[BANK1 ] unsigned char 
 Return value:  Size  Location     Type
		None               void
 Registers used:
		wreg, status,2, status,0, cstack
 Tracked objects:
		On entry : 
		On exit  : 
		Unchanged: 
 Data sizes:     COMRAM   BANK0   BANK1   BANK2   BANK3   BANK4   BANK5   BANK6   BANK7   BANK8   BANK9  BANK10  BANK11  BANK12
      Params:         0       0       0       0       0       0       0       0       0       0       0       0       0       0
      Locals:         0       0       8       0       0       0       0       0       0       0       0       0       0       0
      Temps:          0       0       0       0       0       0       0       0       0       0       0       0       0       0
      Totals:         0       0       8       0       0       0       0       0       0       0       0       0       0       0
Total ram usage:        8 bytes
 Hardware stack levels used:    1
 Hardware stack levels required when called:    9
 This function calls:
		___ftdiv
		___ftmul
		___fttol
		___lbtoft
 This function is called by:
		_main
		_Command
		_PWM_init
		_ContrastPWM_init
 This function uses a non-reentrant model


 *************** function _SetContrast *****************
 Defined at:
		line 94 in file "PWM.c"
 Parameters:    Size  Location     Type
  Duty            1    wreg     unsigned char 
 Auto vars:     Size  Location     Type
  Duty            1   78[BANK1 ] unsigned char 
  tempPR2         3   71[BANK1 ] float 
  temp            2   76[BANK1 ] unsigned int 
  LSB             1   75[BANK1 ] unsigned char 
  MSB             1   74[BANK1 ] unsigned char 
 Return value:  Size  Location     Type
		None               void
 Registers used:
		wreg, status,2, status,0, cstack
 Tracked objects:
		On entry : 
		On exit  : 
		Unchanged: 
 Data sizes:     COMRAM   BANK0   BANK1   BANK2   BANK3   BANK4   BANK5   BANK6   BANK7   BANK8   BANK9  BANK10  BANK11  BANK12
      Params:         0       0       0       0       0       0       0       0       0       0       0       0       0       0
      Locals:         0       0       8       0       0       0       0       0       0       0       0       0       0       0
      Temps:          0       0       0       0       0       0       0       0       0       0       0       0       0       0
      Totals:         0       0       8       0       0       0       0       0       0       0       0       0       0       0
Total ram usage:        8 bytes
 Hardware stack levels used:    1
 Hardware stack levels required when called:    9
 This function calls:
		___ftdiv
		___ftmul
		___fttol
		___lbtoft
 This function is called by:
		_main
		_Command
 This function uses a non-reentrant model


 *************** function ___lbtoft *****************
 Defined at:
		line 27 in file "C:\Program Files (x86)\Microchip\xc8\v1.34\sources\common\lbtoft.c"
 Parameters:    Size  Location     Type
  c               1    wreg     unsigned char 
 Auto vars:     Size  Location     Type
  c               1   25[BANK1 ] unsigned char 
 Return value:  Size  Location     Type
                  3   22[BANK1 ] float 
 Registers used:
		wreg, status,2, status,0, cstack
 Tracked objects:
		On entry : 
		On exit  : 
		Unchanged: 
 Data sizes:     COMRAM   BANK0   BANK1   BANK2   BANK3   BANK4   BANK5   BANK6   BANK7   BANK8   BANK9  BANK10  BANK11  BANK12
      Params:         0       0       3       0       0       0       0       0       0       0       0       0       0       0
      Locals:         0       0       1       0       0       0       0       0       0       0       0       0       0       0
      Temps:          0       0       0       0       0       0       0       0       0       0       0       0       0       0
      Totals:         0       0       4       0       0       0       0       0       0       0       0       0       0       0
Total ram usage:        4 bytes
 Hardware stack levels used:    1
 Hardware stack levels required when called:    8
 This function calls:
		___ftpack
 This function is called by:
		_SetContrast
		_SetDuty
 This function uses a non-reentrant model


 *************** function ___fttol *****************
 Defined at:
		line 44 in file "C:\Program Files (x86)\Microchip\xc8\v1.34\sources\common\fttol.c"
 Parameters:    Size  Location     Type
  f1              3   56[BANK1 ] float 
 Auto vars:     Size  Location     Type
  lval            4   66[BANK1 ] unsigned long 
  exp1            1   70[BANK1 ] unsigned char 
  sign1           1   65[BANK1 ] unsigned char 
 Return value:  Size  Location     Type
                  4   56[BANK1 ] long 
 Registers used:
		wreg, status,2, status,0
 Tracked objects:
		On entry : 
		On exit  : 
		Unchanged: 
 Data sizes:     COMRAM   BANK0   BANK1   BANK2   BANK3   BANK4   BANK5   BANK6   BANK7   BANK8   BANK9  BANK10  BANK11  BANK12
      Params:         0       0       4       0       0       0       0       0       0       0       0       0       0       0
      Locals:         0       0       6       0       0       0       0       0       0       0       0       0       0       0
      Temps:          0       0       5       0       0       0       0       0       0       0       0       0       0       0
      Totals:         0       0      15       0       0       0       0       0       0       0       0       0       0       0
Total ram usage:       15 bytes
 Hardware stack levels used:    1
 Hardware stack levels required when called:    7
 This function calls:
		Nothing
 This function is called by:
		_Command
		_SetContrast
		_SetDuty
 This function uses a non-reentrant model


 *************** function ___ftmul *****************
 Defined at:
		line 62 in file "C:\Program Files (x86)\Microchip\xc8\v1.34\sources\common\ftmul.c"
 Parameters:    Size  Location     Type
  f1              3   41[BANK1 ] float 
  f2              3   44[BANK1 ] float 
 Auto vars:     Size  Location     Type
  f3_as_produc    3   51[BANK1 ] unsigned um
  sign            1   55[BANK1 ] unsigned char 
  cntr            1   54[BANK1 ] unsigned char 
  exp             1   50[BANK1 ] unsigned char 
 Return value:  Size  Location     Type
                  3   41[BANK1 ] float 
 Registers used:
		wreg, status,2, status,0, cstack
 Tracked objects:
		On entry : 
		On exit  : 
		Unchanged: 
 Data sizes:     COMRAM   BANK0   BANK1   BANK2   BANK3   BANK4   BANK5   BANK6   BANK7   BANK8   BANK9  BANK10  BANK11  BANK12
      Params:         0       0       6       0       0       0       0       0       0       0       0       0       0       0
      Locals:         0       0       6       0       0       0       0       0       0       0       0       0       0       0
      Temps:          0       0       3       0       0       0       0       0       0       0       0       0       0       0
      Totals:         0       0      15       0       0       0       0       0       0       0       0       0       0       0
Total ram usage:       15 bytes
 Hardware stack levels used:    1
 Hardware stack levels required when called:    8
 This function calls:
		___ftpack
 This function is called by:
		_Command
		_SetContrast
		_SetDuty
 This function uses a non-reentrant model


 *************** function ___ftdiv *****************
 Defined at:
		line 54 in file "C:\Program Files (x86)\Microchip\xc8\v1.34\sources\common\ftdiv.c"
 Parameters:    Size  Location     Type
  f1              3   26[BANK1 ] float 
  f2              3   29[BANK1 ] float 
 Auto vars:     Size  Location     Type
  f3              3   36[BANK1 ] float 
  sign            1   40[BANK1 ] unsigned char 
  exp             1   39[BANK1 ] unsigned char 
  cntr            1   35[BANK1 ] unsigned char 
 Return value:  Size  Location     Type
                  3   26[BANK1 ] float 
 Registers used:
		wreg, status,2, status,0, cstack
 Tracked objects:
		On entry : 
		On exit  : 
		Unchanged: 
 Data sizes:     COMRAM   BANK0   BANK1   BANK2   BANK3   BANK4   BANK5   BANK6   BANK7   BANK8   BANK9  BANK10  BANK11  BANK12
      Params:         0       0       6       0       0       0       0       0       0       0       0       0       0       0
      Locals:         0       0       6       0       0       0       0       0       0       0       0       0       0       0
      Temps:          0       0       3       0       0       0       0       0       0       0       0       0       0       0
      Totals:         0       0      15       0       0       0       0       0       0       0       0       0       0       0
Total ram usage:       15 bytes
 Hardware stack levels used:    1
 Hardware stack levels required when called:    8
 This function calls:
		___ftpack
 This function is called by:
		_Command
		_SetContrast
		_SetDuty
 This function uses a non-reentrant model


 *************** function ___ftpack *****************
 Defined at:
		line 62 in file "C:\Program Files (x86)\Microchip\xc8\v1.34\sources\common\float.c"
 Parameters:    Size  Location     Type
  arg             3   14[BANK1 ] unsigned um
  exp             1   17[BANK1 ] unsigned char 
  sign            1   18[BANK1 ] unsigned char 
 Auto vars:     Size  Location     Type
		None
 Return value:  Size  Location     Type
                  3   14[BANK1 ] float 
 Registers used:
		wreg, status,2, status,0
 Tracked objects:
		On entry : 
		On exit  : 
		Unchanged: 
 Data sizes:     COMRAM   BANK0   BANK1   BANK2   BANK3   BANK4   BANK5   BANK6   BANK7   BANK8   BANK9  BANK10  BANK11  BANK12
      Params:         0       0       5       0       0       0       0       0       0       0       0       0       0       0
      Locals:         0       0       0       0       0       0       0       0       0       0       0       0       0       0
      Temps:          0       0       3       0       0       0       0       0       0       0       0       0       0       0
      Totals:         0       0       8       0       0       0       0       0       0       0       0       0       0       0
Total ram usage:        8 bytes
 Hardware stack levels used:    1
 Hardware stack levels required when called:    7
 This function calls:
		Nothing
 This function is called by:
		___ftdiv
		___ftmul
		___lbtoft
		___lwtoft
 This function uses a non-reentrant model


 *************** function _SetBaud *****************
 Defined at:
		line 312 in file "UART.c"
 Parameters:    Size  Location     Type
  Baud            4   80[BANK1 ] unsigned long 
  Parity          1   84[BANK1 ] unsigned char 
 Auto vars:     Size  Location     Type
  buf            50   85[BANK1 ] unsigned char [50]
  status          1  135[BANK1 ] unsigned char 
 Return value:  Size  Location     Type
		None               void
 Registers used:
		wreg, fsr0l, fsr0h, fsr1l, fsr1h, fsr2l, fsr2h, status,2, status,0, tblptrl, tblptrh, tblptru, prodl, prodh, cstack
 Tracked objects:
		On entry : 
		On exit  : 
		Unchanged: 
 Data sizes:     COMRAM   BANK0   BANK1   BANK2   BANK3   BANK4   BANK5   BANK6   BANK7   BANK8   BANK9  BANK10  BANK11  BANK12
      Params:         0       0       5       0       0       0       0       0       0       0       0       0       0       0
      Locals:         0       0      51       0       0       0       0       0       0       0       0       0       0       0
      Temps:          0       0       0       0       0       0       0       0       0       0       0       0       0       0
      Totals:         0       0      56       0       0       0       0       0       0       0       0       0       0       0
Total ram usage:       56 bytes
 Hardware stack levels used:    1
 Hardware stack levels required when called:   10
 This function calls:
		_InitUART
		_SetMemoryBaud
		_SetMemoryParity
		_UARTstring
		_UARTstringWAIT
		_delayUS
		_sprintf
 This function is called by:
		_Command
 This function uses a non-reentrant model


 *************** function _sprintf *****************
 Defined at:
		line 492 in file "C:\Program Files (x86)\Microchip\xc8\v1.34\sources\common\doprnt.c"
 Parameters:    Size  Location     Type
  sp              2   36[BANK1 ] PTR unsigned char 
		 -> Command@buf(200), SetBaud@buf(50), 
  f               2   38[BANK1 ] PTR const unsigned char 
		 -> STR_323(32), STR_322(35), STR_321(35), STR_300(10), 
		 -> STR_287(23), STR_286(23), STR_227(23), STR_226(23), 
		 -> STR_222(16), STR_221(36), STR_209(13), STR_208(20), 
		 -> STR_207(17), STR_206(29), STR_190(15), STR_189(32), 
		 -> STR_171(15), STR_170(22), STR_30(19), STR_27(52), 
		 -> STR_26(48), STR_25(47), STR_24(54), STR_23(53), 
 Auto vars:     Size  Location     Type
  idx             1   56[BANK1 ] unsigned char 
  val             4   69[BANK1 ] unsigned long 
  tmpval          4    0        struct .
  flag            2   78[BANK1 ] unsigned short 
  width           2   75[BANK1 ] int 
  prec            2   73[BANK1 ] int 
  ap              2   67[BANK1 ] PTR void [1]
		 -> ?_sprintf(2), 
  len             2   65[BANK1 ] unsigned int 
  cp              2   57[BANK1 ] PTR const unsigned char 
		 -> sprintf@c(1), 
  c               1   77[BANK1 ] char 
 Return value:  Size  Location     Type
                  2   36[BANK1 ] int 
 Registers used:
		wreg, fsr1l, fsr1h, fsr2l, fsr2h, status,2, status,0, tblptrl, tblptrh, tblptru, prodl, prodh, cstack
 Tracked objects:
		On entry : 
		On exit  : 
		Unchanged: 
 Data sizes:     COMRAM   BANK0   BANK1   BANK2   BANK3   BANK4   BANK5   BANK6   BANK7   BANK8   BANK9  BANK10  BANK11  BANK12
      Params:         0       0      16       0       0       0       0       0       0       0       0       0       0       0
      Locals:         0       0      24       0       0       0       0       0       0       0       0       0       0       0
      Temps:          0       0       4       0       0       0       0       0       0       0       0       0       0       0
      Totals:         0       0      44       0       0       0       0       0       0       0       0       0       0       0
Total ram usage:       44 bytes
 Hardware stack levels used:    1
 Hardware stack levels required when called:    8
 This function calls:
		___lldiv
		___llmod
		___wmul
		_isdigit
 This function is called by:
		_SetBaud
		_Command
		_SprintDate
 This function uses a non-reentrant model


 *************** function _isdigit *****************
 Defined at:
		line 8 in file "C:\Program Files (x86)\Microchip\xc8\v1.34\sources\common\isdigit.c"
 Parameters:    Size  Location     Type
  c               1    wreg     unsigned char 
 Auto vars:     Size  Location     Type
  c               1   16[BANK1 ] unsigned char 
 Return value:  Size  Location     Type
		None               void
 Registers used:
		wreg, status,2, status,0
 Tracked objects:
		On entry : 
		On exit  : 
		Unchanged: 
 Data sizes:     COMRAM   BANK0   BANK1   BANK2   BANK3   BANK4   BANK5   BANK6   BANK7   BANK8   BANK9  BANK10  BANK11  BANK12
      Params:         0       0       0       0       0       0       0       0       0       0       0       0       0       0
      Locals:         0       0       2       0       0       0       0       0       0       0       0       0       0       0
      Temps:          0       0       1       0       0       0       0       0       0       0       0       0       0       0
      Totals:         0       0       3       0       0       0       0       0       0       0       0       0       0       0
Total ram usage:        3 bytes
 Hardware stack levels used:    1
 Hardware stack levels required when called:    7
 This function calls:
		Nothing
 This function is called by:
		_sprintf
 This function uses a non-reentrant model


 *************** function ___wmul *****************
 Defined at:
		line 15 in file "C:\Program Files (x86)\Microchip\xc8\v1.34\sources\common\Umul16.c"
 Parameters:    Size  Location     Type
  multiplier      2   14[BANK1 ] unsigned int 
  multiplicand    2   16[BANK1 ] unsigned int 
 Auto vars:     Size  Location     Type
  product         2   18[BANK1 ] unsigned int 
 Return value:  Size  Location     Type
                  2   14[BANK1 ] unsigned int 
 Registers used:
		wreg, status,2, status,0, prodl, prodh
 Tracked objects:
		On entry : 
		On exit  : 
		Unchanged: 
 Data sizes:     COMRAM   BANK0   BANK1   BANK2   BANK3   BANK4   BANK5   BANK6   BANK7   BANK8   BANK9  BANK10  BANK11  BANK12
      Params:         0       0       4       0       0       0       0       0       0       0       0       0       0       0
      Locals:         0       0       2       0       0       0       0       0       0       0       0       0       0       0
      Temps:          0       0       0       0       0       0       0       0       0       0       0       0       0       0
      Totals:         0       0       6       0       0       0       0       0       0       0       0       0       0       0
Total ram usage:        6 bytes
 Hardware stack levels used:    1
 Hardware stack levels required when called:    7
 This function calls:
		Nothing
 This function is called by:
		_SetFreq
		_sprintf
 This function uses a non-reentrant model


 *************** function ___llmod *****************
 Defined at:
		line 8 in file "C:\Program Files (x86)\Microchip\xc8\v1.34\sources\common\llmod.c"
 Parameters:    Size  Location     Type
  dividend        4   27[BANK1 ] unsigned long 
  divisor         4   31[BANK1 ] unsigned long 
 Auto vars:     Size  Location     Type
  counter         1   35[BANK1 ] unsigned char 
 Return value:  Size  Location     Type
                  4   27[BANK1 ] unsigned long 
 Registers used:
		wreg, status,2, status,0
 Tracked objects:
		On entry : 
		On exit  : 
		Unchanged: 
 Data sizes:     COMRAM   BANK0   BANK1   BANK2   BANK3   BANK4   BANK5   BANK6   BANK7   BANK8   BANK9  BANK10  BANK11  BANK12
      Params:         0       0       8       0       0       0       0       0       0       0       0       0       0       0
      Locals:         0       0       1       0       0       0       0       0       0       0       0       0       0       0
      Temps:          0       0       0       0       0       0       0       0       0       0       0       0       0       0
      Totals:         0       0       9       0       0       0       0       0       0       0       0       0       0       0
Total ram usage:        9 bytes
 Hardware stack levels used:    1
 Hardware stack levels required when called:    7
 This function calls:
		Nothing
 This function is called by:
		_sprintf
 This function uses a non-reentrant model


 *************** function _UARTstringWAIT *****************
 Defined at:
		line 292 in file "UART.c"
 Parameters:    Size  Location     Type
  data            2   25[BANK1 ] PTR const unsigned char 
		 -> STR_34(18), STR_33(17), STR_32(24), STR_31(23), 
 Auto vars:     Size  Location     Type
		None
 Return value:  Size  Location     Type
		None               void
 Registers used:
		wreg, status,2, status,0, tblptrl, tblptrh, tblptru, cstack
 Tracked objects:
		On entry : 
		On exit  : 
		Unchanged: 
 Data sizes:     COMRAM   BANK0   BANK1   BANK2   BANK3   BANK4   BANK5   BANK6   BANK7   BANK8   BANK9  BANK10  BANK11  BANK12
      Params:         0       0       2       0       0       0       0       0       0       0       0       0       0       0
      Locals:         0       0       0       0       0       0       0       0       0       0       0       0       0       0
      Temps:          0       0       0       0       0       0       0       0       0       0       0       0       0       0
      Totals:         0       0       2       0       0       0       0       0       0       0       0       0       0       0
Total ram usage:        2 bytes
 Hardware stack levels used:    1
 Hardware stack levels required when called:    9
 This function calls:
		_UARTchar
		_delayUS
 This function is called by:
		_SetBaud
 This function uses a non-reentrant model


 *************** function _SetMemoryParity *****************
 Defined at:
		line 190 in file "EEPROM.c"
 Parameters:    Size  Location     Type
  Parity          1    wreg     unsigned char 
 Auto vars:     Size  Location     Type
  Parity          1   19[BANK1 ] unsigned char 
  Test            1   18[BANK1 ] unsigned char 
 Return value:  Size  Location     Type
                  1    wreg      unsigned char 
 Registers used:
		wreg, status,2, status,0, cstack
 Tracked objects:
		On entry : 
		On exit  : 
		Unchanged: 
 Data sizes:     COMRAM   BANK0   BANK1   BANK2   BANK3   BANK4   BANK5   BANK6   BANK7   BANK8   BANK9  BANK10  BANK11  BANK12
      Params:         0       0       0       0       0       0       0       0       0       0       0       0       0       0
      Locals:         0       0       2       0       0       0       0       0       0       0       0       0       0       0
      Temps:          0       0       0       0       0       0       0       0       0       0       0       0       0       0
      Totals:         0       0       2       0       0       0       0       0       0       0       0       0       0       0
Total ram usage:        2 bytes
 Hardware stack levels used:    1
 Hardware stack levels required when called:    9
 This function calls:
		_GetMemoryParity
		_WriteEEPROM_1Byte
 This function is called by:
		_SetBaud
		_SetEEPROM
 This function uses a non-reentrant model


 *************** function _GetMemoryParity *****************
 Defined at:
		line 176 in file "EEPROM.c"
 Parameters:    Size  Location     Type
		None
 Auto vars:     Size  Location     Type
  Parity          1   17[BANK1 ] unsigned char 
 Return value:  Size  Location     Type
                  1    wreg      unsigned char 
 Registers used:
		wreg, status,2, status,0, cstack
 Tracked objects:
		On entry : 
		On exit  : 
		Unchanged: 
 Data sizes:     COMRAM   BANK0   BANK1   BANK2   BANK3   BANK4   BANK5   BANK6   BANK7   BANK8   BANK9  BANK10  BANK11  BANK12
      Params:         0       0       0       0       0       0       0       0       0       0       0       0       0       0
      Locals:         0       0       1       0       0       0       0       0       0       0       0       0       0       0
      Temps:          0       0       0       0       0       0       0       0       0       0       0       0       0       0
      Totals:         0       0       1       0       0       0       0       0       0       0       0       0       0       0
Total ram usage:        1 bytes
 Hardware stack levels used:    1
 Hardware stack levels required when called:    8
 This function calls:
		_ReadEEPROM_1Byte
 This function is called by:
		_SetMemoryParity
 This function uses a non-reentrant model


 *************** function _SetMemoryBaud *****************
 Defined at:
		line 142 in file "EEPROM.c"
 Parameters:    Size  Location     Type
  Baud            4   49[BANK1 ] unsigned long 
 Auto vars:     Size  Location     Type
  Test            4   57[BANK1 ] unsigned long 
  BaudTempL       1   64[BANK1 ] unsigned char 
  BaudTempML      1   63[BANK1 ] unsigned char 
  BaudTempMH      1   62[BANK1 ] unsigned char 
  BaudTempH       1   61[BANK1 ] unsigned char 
 Return value:  Size  Location     Type
                  1    wreg      unsigned char 
 Registers used:
		wreg, status,2, status,0, cstack
 Tracked objects:
		On entry : 
		On exit  : 
		Unchanged: 
 Data sizes:     COMRAM   BANK0   BANK1   BANK2   BANK3   BANK4   BANK5   BANK6   BANK7   BANK8   BANK9  BANK10  BANK11  BANK12
      Params:         0       0       4       0       0       0       0       0       0       0       0       0       0       0
      Locals:         0       0       8       0       0       0       0       0       0       0       0       0       0       0
      Temps:          0       0       4       0       0       0       0       0       0       0       0       0       0       0
      Totals:         0       0      16       0       0       0       0       0       0       0       0       0       0       0
Total ram usage:       16 bytes
 Hardware stack levels used:    1
 Hardware stack levels required when called:    9
 This function calls:
		_GetMemoryBaud
		_WriteEEPROM_1Byte
 This function is called by:
		_SetBaud
		_SetEEPROM
 This function uses a non-reentrant model


 *************** function _WriteEEPROM_1Byte *****************
 Defined at:
		line 94 in file "EEPROM.c"
 Parameters:    Size  Location     Type
  address         2   14[BANK1 ] unsigned int 
  data            1   16[BANK1 ] unsigned char 
 Auto vars:     Size  Location     Type
  GIEstatus       1   17[BANK1 ] unsigned char 
 Return value:  Size  Location     Type
		None               void
 Registers used:
		wreg, status,2, status,0, cstack
 Tracked objects:
		On entry : 
		On exit  : 
		Unchanged: 
 Data sizes:     COMRAM   BANK0   BANK1   BANK2   BANK3   BANK4   BANK5   BANK6   BANK7   BANK8   BANK9  BANK10  BANK11  BANK12
      Params:         0       0       3       0       0       0       0       0       0       0       0       0       0       0
      Locals:         0       0       1       0       0       0       0       0       0       0       0       0       0       0
      Temps:          0       0       0       0       0       0       0       0       0       0       0       0       0       0
      Totals:         0       0       4       0       0       0       0       0       0       0       0       0       0       0
Total ram usage:        4 bytes
 Hardware stack levels used:    1
 Hardware stack levels required when called:    8
 This function calls:
		_EEPROM_UNLOCK
 This function is called by:
		_SetMemoryBaud
		_SetMemoryParity
		_SetMemoryLong
		_SetMemoryInt
		_SetMemoryChar
 This function uses a non-reentrant model


 *************** function _EEPROM_UNLOCK *****************
 Defined at:
		line 79 in file "EEPROM.c"
 Parameters:    Size  Location     Type
		None
 Auto vars:     Size  Location     Type
		None
 Return value:  Size  Location     Type
		None               void
 Registers used:
		wreg, status,2
 Tracked objects:
		On entry : 
		On exit  : 
		Unchanged: 
 Data sizes:     COMRAM   BANK0   BANK1   BANK2   BANK3   BANK4   BANK5   BANK6   BANK7   BANK8   BANK9  BANK10  BANK11  BANK12
      Params:         0       0       0       0       0       0       0       0       0       0       0       0       0       0
      Locals:         0       0       0       0       0       0       0       0       0       0       0       0       0       0
      Temps:          0       0       0       0       0       0       0       0       0       0       0       0       0       0
      Totals:         0       0       0       0       0       0       0       0       0       0       0       0       0       0
Total ram usage:        0 bytes
 Hardware stack levels used:    1
 Hardware stack levels required when called:    7
 This function calls:
		Nothing
 This function is called by:
		_WriteEEPROM_1Byte
 This function uses a non-reentrant model


 *************** function _GetMemoryBaud *****************
 Defined at:
		line 119 in file "EEPROM.c"
 Parameters:    Size  Location     Type
		None
 Auto vars:     Size  Location     Type
  baud            4   41[BANK1 ] unsigned long 
  BaudTempL       1   48[BANK1 ] unsigned char 
  BaudTempML      1   47[BANK1 ] unsigned char 
  BaudTempMH      1   46[BANK1 ] unsigned char 
  BaudTempH       1   45[BANK1 ] unsigned char 
 Return value:  Size  Location     Type
                  4   17[BANK1 ] unsigned long 
 Registers used:
		wreg, status,2, status,0, cstack
 Tracked objects:
		On entry : 
		On exit  : 
		Unchanged: 
 Data sizes:     COMRAM   BANK0   BANK1   BANK2   BANK3   BANK4   BANK5   BANK6   BANK7   BANK8   BANK9  BANK10  BANK11  BANK12
      Params:         0       0       4       0       0       0       0       0       0       0       0       0       0       0
      Locals:         0       0       8       0       0       0       0       0       0       0       0       0       0       0
      Temps:          0       0      20       0       0       0       0       0       0       0       0       0       0       0
      Totals:         0       0      32       0       0       0       0       0       0       0       0       0       0       0
Total ram usage:       32 bytes
 Hardware stack levels used:    1
 Hardware stack levels required when called:    8
 This function calls:
		_ReadEEPROM_1Byte
 This function is called by:
		_SetMemoryBaud
		_GetEEPROM
 This function uses a non-reentrant model


 *************** function _ReadEEPROM_1Byte *****************
 Defined at:
		line 54 in file "EEPROM.c"
 Parameters:    Size  Location     Type
  address         2   14[BANK1 ] unsigned int 
 Auto vars:     Size  Location     Type
  GIEstatus       1   16[BANK1 ] unsigned char 
 Return value:  Size  Location     Type
                  2   14[BANK1 ] unsigned int 
 Registers used:
		wreg, status,2, status,0
 Tracked objects:
		On entry : 
		On exit  : 
		Unchanged: 
 Data sizes:     COMRAM   BANK0   BANK1   BANK2   BANK3   BANK4   BANK5   BANK6   BANK7   BANK8   BANK9  BANK10  BANK11  BANK12
      Params:         0       0       2       0       0       0       0       0       0       0       0       0       0       0
      Locals:         0       0       1       0       0       0       0       0       0       0       0       0       0       0
      Temps:          0       0       0       0       0       0       0       0       0       0       0       0       0       0
      Totals:         0       0       3       0       0       0       0       0       0       0       0       0       0       0
Total ram usage:        3 bytes
 Hardware stack levels used:    1
 Hardware stack levels required when called:    7
 This function calls:
		Nothing
 This function is called by:
		_GetMemoryBaud
		_GetMemoryParity
		_GetMemoryLong
		_GetMemoryChar
		_GetMemoryInt
 This function uses a non-reentrant model


 *************** function _InitUART *****************
 Defined at:
		line 67 in file "UART.c"
 Parameters:    Size  Location     Type
  Baud            4   27[BANK1 ] unsigned long 
  parity          1   31[BANK1 ] unsigned char 
 Auto vars:     Size  Location     Type
  temp            4   40[BANK1 ] unsigned long 
  spbrg           2   36[BANK1 ] unsigned int 
  config          1   39[BANK1 ] unsigned char 
  baudconfig      1   38[BANK1 ] unsigned char 
 Return value:  Size  Location     Type
		None               void
 Registers used:
		wreg, status,2, status,0, cstack
 Tracked objects:
		On entry : 
		On exit  : 
		Unchanged: 
 Data sizes:     COMRAM   BANK0   BANK1   BANK2   BANK3   BANK4   BANK5   BANK6   BANK7   BANK8   BANK9  BANK10  BANK11  BANK12
      Params:         0       0       5       0       0       0       0       0       0       0       0       0       0       0
      Locals:         0       0       8       0       0       0       0       0       0       0       0       0       0       0
      Temps:          0       0       4       0       0       0       0       0       0       0       0       0       0       0
      Totals:         0       0      17       0       0       0       0       0       0       0       0       0       0       0
Total ram usage:       17 bytes
 Hardware stack levels used:    1
 Hardware stack levels required when called:    8
 This function calls:
		_OpenUSART
		_ReadUSART
		___lldiv
		_baudUSART
 This function is called by:
		_main
		_SetBaud
 This function uses a non-reentrant model


 *************** function _baudUSART *****************
 Defined at:
		line 125 in file "UART.c"
 Parameters:    Size  Location     Type
  baudconfig      1    wreg     unsigned char 
 Auto vars:     Size  Location     Type
  baudconfig      1   14[BANK1 ] unsigned char 
 Return value:  Size  Location     Type
		None               void
 Registers used:
		wreg, status,2
 Tracked objects:
		On entry : 
		On exit  : 
		Unchanged: 
 Data sizes:     COMRAM   BANK0   BANK1   BANK2   BANK3   BANK4   BANK5   BANK6   BANK7   BANK8   BANK9  BANK10  BANK11  BANK12
      Params:         0       0       0       0       0       0       0       0       0       0       0       0       0       0
      Locals:         0       0       1       0       0       0       0       0       0       0       0       0       0       0
      Temps:          0       0       0       0       0       0       0       0       0       0       0       0       0       0
      Totals:         0       0       1       0       0       0       0       0       0       0       0       0       0       0
Total ram usage:        1 bytes
 Hardware stack levels used:    1
 Hardware stack levels required when called:    7
 This function calls:
		Nothing
 This function is called by:
		_InitUART
 This function uses a non-reentrant model


 *************** function ___lldiv *****************
 Defined at:
		line 8 in file "C:\Program Files (x86)\Microchip\xc8\v1.34\sources\common\lldiv.c"
 Parameters:    Size  Location     Type
  dividend        4   14[BANK1 ] unsigned long 
  divisor         4   18[BANK1 ] unsigned long 
 Auto vars:     Size  Location     Type
  quotient        4   22[BANK1 ] unsigned long 
  counter         1   26[BANK1 ] unsigned char 
 Return value:  Size  Location     Type
                  4   14[BANK1 ] unsigned long 
 Registers used:
		wreg, status,2, status,0
 Tracked objects:
		On entry : 
		On exit  : 
		Unchanged: 
 Data sizes:     COMRAM   BANK0   BANK1   BANK2   BANK3   BANK4   BANK5   BANK6   BANK7   BANK8   BANK9  BANK10  BANK11  BANK12
      Params:         0       0       8       0       0       0       0       0       0       0       0       0       0       0
      Locals:         0       0       5       0       0       0       0       0       0       0       0       0       0       0
      Temps:          0       0       0       0       0       0       0       0       0       0       0       0       0       0
      Totals:         0       0      13       0       0       0       0       0       0       0       0       0       0       0
Total ram usage:       13 bytes
 Hardware stack levels used:    1
 Hardware stack levels required when called:    7
 This function calls:
		Nothing
 This function is called by:
		_InitUART
		_sprintf
 This function uses a non-reentrant model


 *************** function _ReadUSART *****************
 Defined at:
		line 250 in file "UART.c"
 Parameters:    Size  Location     Type
		None
 Auto vars:     Size  Location     Type
  data            1   14[BANK1 ] unsigned char 
 Return value:  Size  Location     Type
                  1    wreg      unsigned char 
 Registers used:
		wreg, status,2, status,0
 Tracked objects:
		On entry : 
		On exit  : 
		Unchanged: 
 Data sizes:     COMRAM   BANK0   BANK1   BANK2   BANK3   BANK4   BANK5   BANK6   BANK7   BANK8   BANK9  BANK10  BANK11  BANK12
      Params:         0       0       0       0       0       0       0       0       0       0       0       0       0       0
      Locals:         0       0       1       0       0       0       0       0       0       0       0       0       0       0
      Temps:          0       0       0       0       0       0       0       0       0       0       0       0       0       0
      Totals:         0       0       1       0       0       0       0       0       0       0       0       0       0       0
Total ram usage:        1 bytes
 Hardware stack levels used:    1
 Hardware stack levels required when called:    7
 This function calls:
		Nothing
 This function is called by:
		_main
		_InitUART
 This function uses a non-reentrant model


 *************** function _OpenUSART *****************
 Defined at:
		line 136 in file "UART.c"
 Parameters:    Size  Location     Type
  config          1    wreg     unsigned char 
  spbrg           2   14[BANK1 ] unsigned int 
 Auto vars:     Size  Location     Type
  config          1   16[BANK1 ] unsigned char 
 Return value:  Size  Location     Type
		None               void
 Registers used:
		wreg, status,2
 Tracked objects:
		On entry : 
		On exit  : 
		Unchanged: 
 Data sizes:     COMRAM   BANK0   BANK1   BANK2   BANK3   BANK4   BANK5   BANK6   BANK7   BANK8   BANK9  BANK10  BANK11  BANK12
      Params:         0       0       2       0       0       0       0       0       0       0       0       0       0       0
      Locals:         0       0       1       0       0       0       0       0       0       0       0       0       0       0
      Temps:          0       0       0       0       0       0       0       0       0       0       0       0       0       0
      Totals:         0       0       3       0       0       0       0       0       0       0       0       0       0       0
Total ram usage:        3 bytes
 Hardware stack levels used:    1
 Hardware stack levels required when called:    7
 This function calls:
		Nothing
 This function is called by:
		_InitUART
 This function uses a non-reentrant model


 *************** function _Send_Config2 *****************
 Defined at:
		line 137 in file "RF.c"
 Parameters:    Size  Location     Type
  pin             1    wreg     unsigned char 
  data            2   25[BANK1 ] PTR const unsigned char 
		 -> SubLightOFF(16), SubLightON(16), Aux2OFF(16), Aux2ON(16), 
		 -> BedOFF(16), BedON(16), AuxOFF(16), AuxON(16), 
		 -> fanOFF(16), fanON(16), 
 Auto vars:     Size  Location     Type
  pin             1   29[BANK1 ] unsigned char 
  i               1   30[BANK1 ] unsigned char 
 Return value:  Size  Location     Type
		None               void
 Registers used:
		wreg, status,2, status,0, tblptrl, tblptrh, tblptru, prodl, prodh, cstack
 Tracked objects:
		On entry : 
		On exit  : 
		Unchanged: 
 Data sizes:     COMRAM   BANK0   BANK1   BANK2   BANK3   BANK4   BANK5   BANK6   BANK7   BANK8   BANK9  BANK10  BANK11  BANK12
      Params:         0       0       2       0       0       0       0       0       0       0       0       0       0       0
      Locals:         0       0       2       0       0       0       0       0       0       0       0       0       0       0
      Temps:          0       0       2       0       0       0       0       0       0       0       0       0       0       0
      Totals:         0       0       6       0       0       0       0       0       0       0       0       0       0       0
Total ram usage:        6 bytes
 Hardware stack levels used:    1
 Hardware stack levels required when called:    9
 This function calls:
		_One_Config2
		_Zero_Config2
		_delayUS
 This function is called by:
		_Command
 This function uses a non-reentrant model


 *************** function _Zero_Config2 *****************
 Defined at:
		line 163 in file "RF.c"
 Parameters:    Size  Location     Type
  pin             1    wreg     unsigned char 
 Auto vars:     Size  Location     Type
  pin             1   24[BANK1 ] unsigned char 
 Return value:  Size  Location     Type
		None               void
 Registers used:
		wreg, status,2, status,0, cstack
 Tracked objects:
		On entry : 
		On exit  : 
		Unchanged: 
 Data sizes:     COMRAM   BANK0   BANK1   BANK2   BANK3   BANK4   BANK5   BANK6   BANK7   BANK8   BANK9  BANK10  BANK11  BANK12
      Params:         0       0       0       0       0       0       0       0       0       0       0       0       0       0
      Locals:         0       0       1       0       0       0       0       0       0       0       0       0       0       0
      Temps:          0       0       0       0       0       0       0       0       0       0       0       0       0       0
      Totals:         0       0       1       0       0       0       0       0       0       0       0       0       0       0
Total ram usage:        1 bytes
 Hardware stack levels used:    1
 Hardware stack levels required when called:    8
 This function calls:
		_delayUS
 This function is called by:
		_Send_Config2
 This function uses a non-reentrant model


 *************** function _One_Config2 *****************
 Defined at:
		line 176 in file "RF.c"
 Parameters:    Size  Location     Type
  pin             1    wreg     unsigned char 
 Auto vars:     Size  Location     Type
  pin             1   24[BANK1 ] unsigned char 
 Return value:  Size  Location     Type
		None               void
 Registers used:
		wreg, status,2, status,0, cstack
 Tracked objects:
		On entry : 
		On exit  : 
		Unchanged: 
 Data sizes:     COMRAM   BANK0   BANK1   BANK2   BANK3   BANK4   BANK5   BANK6   BANK7   BANK8   BANK9  BANK10  BANK11  BANK12
      Params:         0       0       0       0       0       0       0       0       0       0       0       0       0       0
      Locals:         0       0       1       0       0       0       0       0       0       0       0       0       0       0
      Temps:          0       0       0       0       0       0       0       0       0       0       0       0       0       0
      Totals:         0       0       1       0       0       0       0       0       0       0       0       0       0       0
Total ram usage:        1 bytes
 Hardware stack levels used:    1
 Hardware stack levels required when called:    8
 This function calls:
		_delayUS
 This function is called by:
		_Send_Config2
 This function uses a non-reentrant model


 *************** function _Send_Config1 *****************
 Defined at:
		line 54 in file "RF.c"
 Parameters:    Size  Location     Type
  pin             1    wreg     unsigned char 
  data            2   25[BANK1 ] PTR const unsigned char 
		 -> TXdataF(12), TXdataE(12), TXdataD(12), 
 Auto vars:     Size  Location     Type
  pin             1   30[BANK1 ] unsigned char 
  i               1   29[BANK1 ] unsigned char 
 Return value:  Size  Location     Type
		None               void
 Registers used:
		wreg, status,2, status,0, tblptrl, tblptrh, tblptru, prodl, prodh, cstack
 Tracked objects:
		On entry : 
		On exit  : 
		Unchanged: 
 Data sizes:     COMRAM   BANK0   BANK1   BANK2   BANK3   BANK4   BANK5   BANK6   BANK7   BANK8   BANK9  BANK10  BANK11  BANK12
      Params:         0       0       2       0       0       0       0       0       0       0       0       0       0       0
      Locals:         0       0       2       0       0       0       0       0       0       0       0       0       0       0
      Temps:          0       0       2       0       0       0       0       0       0       0       0       0       0       0
      Totals:         0       0       6       0       0       0       0       0       0       0       0       0       0       0
Total ram usage:        6 bytes
 Hardware stack levels used:    1
 Hardware stack levels required when called:    9
 This function calls:
		_One_Config1
		_Zero_Config1
		_delayUS
		_f_Config1
 This function is called by:
		_Command
 This function uses a non-reentrant model


 *************** function _f_Config1 *****************
 Defined at:
		line 120 in file "RF.c"
 Parameters:    Size  Location     Type
  pin             1    wreg     unsigned char 
 Auto vars:     Size  Location     Type
  pin             1   24[BANK1 ] unsigned char 
 Return value:  Size  Location     Type
		None               void
 Registers used:
		wreg, status,2, status,0, cstack
 Tracked objects:
		On entry : 
		On exit  : 
		Unchanged: 
 Data sizes:     COMRAM   BANK0   BANK1   BANK2   BANK3   BANK4   BANK5   BANK6   BANK7   BANK8   BANK9  BANK10  BANK11  BANK12
      Params:         0       0       0       0       0       0       0       0       0       0       0       0       0       0
      Locals:         0       0       1       0       0       0       0       0       0       0       0       0       0       0
      Temps:          0       0       0       0       0       0       0       0       0       0       0       0       0       0
      Totals:         0       0       1       0       0       0       0       0       0       0       0       0       0       0
Total ram usage:        1 bytes
 Hardware stack levels used:    1
 Hardware stack levels required when called:    8
 This function calls:
		_delayUS
 This function is called by:
		_Send_Config1
 This function uses a non-reentrant model


 *************** function _Zero_Config1 *****************
 Defined at:
		line 86 in file "RF.c"
 Parameters:    Size  Location     Type
  pin             1    wreg     unsigned char 
 Auto vars:     Size  Location     Type
  pin             1   24[BANK1 ] unsigned char 
 Return value:  Size  Location     Type
		None               void
 Registers used:
		wreg, status,2, status,0, cstack
 Tracked objects:
		On entry : 
		On exit  : 
		Unchanged: 
 Data sizes:     COMRAM   BANK0   BANK1   BANK2   BANK3   BANK4   BANK5   BANK6   BANK7   BANK8   BANK9  BANK10  BANK11  BANK12
      Params:         0       0       0       0       0       0       0       0       0       0       0       0       0       0
      Locals:         0       0       1       0       0       0       0       0       0       0       0       0       0       0
      Temps:          0       0       0       0       0       0       0       0       0       0       0       0       0       0
      Totals:         0       0       1       0       0       0       0       0       0       0       0       0       0       0
Total ram usage:        1 bytes
 Hardware stack levels used:    1
 Hardware stack levels required when called:    8
 This function calls:
		_delayUS
 This function is called by:
		_Send_Config1
 This function uses a non-reentrant model


 *************** function _One_Config1 *****************
 Defined at:
		line 103 in file "RF.c"
 Parameters:    Size  Location     Type
  pin             1    wreg     unsigned char 
 Auto vars:     Size  Location     Type
  pin             1   24[BANK1 ] unsigned char 
 Return value:  Size  Location     Type
		None               void
 Registers used:
		wreg, status,2, status,0, cstack
 Tracked objects:
		On entry : 
		On exit  : 
		Unchanged: 
 Data sizes:     COMRAM   BANK0   BANK1   BANK2   BANK3   BANK4   BANK5   BANK6   BANK7   BANK8   BANK9  BANK10  BANK11  BANK12
      Params:         0       0       0       0       0       0       0       0       0       0       0       0       0       0
      Locals:         0       0       1       0       0       0       0       0       0       0       0       0       0       0
      Temps:          0       0       0       0       0       0       0       0       0       0       0       0       0       0
      Totals:         0       0       1       0       0       0       0       0       0       0       0       0       0       0
Total ram usage:        1 bytes
 Hardware stack levels used:    1
 Hardware stack levels required when called:    8
 This function calls:
		_delayUS
 This function is called by:
		_Send_Config1
 This function uses a non-reentrant model


 *************** function _SET_RTC_TIME *****************
 Defined at:
		line 170 in file "RTC.c"
 Parameters:    Size  Location     Type
  SetTime         9   22[BANK1 ] struct TIME
 Auto vars:     Size  Location     Type
  temp            7   35[BANK1 ] unsigned char [7]
  Error           1   42[BANK1 ] char 
 Return value:  Size  Location     Type
                  1    wreg      unsigned char 
 Registers used:
		wreg, status,2, status,0, cstack
 Tracked objects:
		On entry : 
		On exit  : 
		Unchanged: 
 Data sizes:     COMRAM   BANK0   BANK1   BANK2   BANK3   BANK4   BANK5   BANK6   BANK7   BANK8   BANK9  BANK10  BANK11  BANK12
      Params:         0       0       9       0       0       0       0       0       0       0       0       0       0       0
      Locals:         0       0       8       0       0       0       0       0       0       0       0       0       0       0
      Temps:          0       0       4       0       0       0       0       0       0       0       0       0       0       0
      Totals:         0       0      21       0       0       0       0       0       0       0       0       0       0       0
Total ram usage:       21 bytes
 Hardware stack levels used:    1
 Hardware stack levels required when called:   10
 This function calls:
		_I2C_Write_At_Address
		___awdiv
		___awmod
 This function is called by:
		_Command
 This function uses a non-reentrant model


 *************** function ___awmod *****************
 Defined at:
		line 8 in file "C:\Program Files (x86)\Microchip\xc8\v1.34\sources\common\awmod.c"
 Parameters:    Size  Location     Type
  dividend        2   14[BANK1 ] int 
  divisor         2   16[BANK1 ] int 
 Auto vars:     Size  Location     Type
  sign            1   19[BANK1 ] unsigned char 
  counter         1   18[BANK1 ] unsigned char 
 Return value:  Size  Location     Type
                  2   14[BANK1 ] int 
 Registers used:
		wreg, status,2, status,0
 Tracked objects:
		On entry : 
		On exit  : 
		Unchanged: 
 Data sizes:     COMRAM   BANK0   BANK1   BANK2   BANK3   BANK4   BANK5   BANK6   BANK7   BANK8   BANK9  BANK10  BANK11  BANK12
      Params:         0       0       4       0       0       0       0       0       0       0       0       0       0       0
      Locals:         0       0       2       0       0       0       0       0       0       0       0       0       0       0
      Temps:          0       0       0       0       0       0       0       0       0       0       0       0       0       0
      Totals:         0       0       6       0       0       0       0       0       0       0       0       0       0       0
Total ram usage:        6 bytes
 Hardware stack levels used:    1
 Hardware stack levels required when called:    7
 This function calls:
		Nothing
 This function is called by:
		_SET_RTC_TIME
 This function uses a non-reentrant model


 *************** function ___awdiv *****************
 Defined at:
		line 8 in file "C:\Program Files (x86)\Microchip\xc8\v1.34\sources\common\awdiv.c"
 Parameters:    Size  Location     Type
  dividend        2   14[BANK1 ] int 
  divisor         2   16[BANK1 ] int 
 Auto vars:     Size  Location     Type
  quotient        2   20[BANK1 ] int 
  sign            1   19[BANK1 ] unsigned char 
  counter         1   18[BANK1 ] unsigned char 
 Return value:  Size  Location     Type
                  2   14[BANK1 ] int 
 Registers used:
		wreg, status,2, status,0
 Tracked objects:
		On entry : 
		On exit  : 
		Unchanged: 
 Data sizes:     COMRAM   BANK0   BANK1   BANK2   BANK3   BANK4   BANK5   BANK6   BANK7   BANK8   BANK9  BANK10  BANK11  BANK12
      Params:         0       0       4       0       0       0       0       0       0       0       0       0       0       0
      Locals:         0       0       4       0       0       0       0       0       0       0       0       0       0       0
      Temps:          0       0       0       0       0       0       0       0       0       0       0       0       0       0
      Totals:         0       0       8       0       0       0       0       0       0       0       0       0       0       0
Total ram usage:        8 bytes
 Hardware stack levels used:    1
 Hardware stack levels required when called:    7
 This function calls:
		Nothing
 This function is called by:
		_SET_RTC_TIME
 This function uses a non-reentrant model


 *************** function _I2C_Write_At_Address *****************
 Defined at:
		line 161 in file "I2C.c"
 Parameters:    Size  Location     Type
  I2Caddress      1    wreg     unsigned char 
  Register        1   16[BANK1 ] unsigned char 
  data            1   17[BANK1 ] unsigned char 
 Auto vars:     Size  Location     Type
  I2Caddress      1   20[BANK1 ] unsigned char 
 Return value:  Size  Location     Type
                  1    wreg      unsigned char 
 Registers used:
		wreg, status,2, status,0, cstack
 Tracked objects:
		On entry : 
		On exit  : 
		Unchanged: 
 Data sizes:     COMRAM   BANK0   BANK1   BANK2   BANK3   BANK4   BANK5   BANK6   BANK7   BANK8   BANK9  BANK10  BANK11  BANK12
      Params:         0       0       2       0       0       0       0       0       0       0       0       0       0       0
      Locals:         0       0       1       0       0       0       0       0       0       0       0       0       0       0
      Temps:          0       0       2       0       0       0       0       0       0       0       0       0       0       0
      Totals:         0       0       5       0       0       0       0       0       0       0       0       0       0       0
Total ram usage:        5 bytes
 Hardware stack levels used:    1
 Hardware stack levels required when called:    9
 This function calls:
		_IdleI2C
		_WriteI2C
 This function is called by:
		_RTC_Clock_Enable
		_RTC_TIME_NONMilitary
		_SET_RTC_TIME
		_RTC_Clock_Disable
 This function uses a non-reentrant model


 *************** function _RemoveSpaces *****************
 Defined at:
		line 273 in file "MISC.c"
 Parameters:    Size  Location     Type
  This            2   29[BANK1 ] PTR unsigned char 
		 -> Rxdata(100), 
 Auto vars:     Size  Location     Type
  That          100   32[BANK1 ] unsigned char [100]
  address         2  132[BANK1 ] PTR unsigned char 
		 -> Rxdata(100), 
  i               1  134[BANK1 ] unsigned char 
 Return value:  Size  Location     Type
		None               void
 Registers used:
		wreg, fsr0l, fsr0h, fsr1l, fsr1h, fsr2l, fsr2h, status,2, status,0, tblptrl, tblptrh, tblptru, prodl, prodh, cstack
 Tracked objects:
		On entry : 
		On exit  : 
		Unchanged: 
 Data sizes:     COMRAM   BANK0   BANK1   BANK2   BANK3   BANK4   BANK5   BANK6   BANK7   BANK8   BANK9  BANK10  BANK11  BANK12
      Params:         0       0       2       0       0       0       0       0       0       0       0       0       0       0
      Locals:         0       0     103       0       0       0       0       0       0       0       0       0       0       0
      Temps:          0       0       1       0       0       0       0       0       0       0       0       0       0       0
      Totals:         0       0     106       0       0       0       0       0       0       0       0       0       0       0
Total ram usage:      106 bytes
 Hardware stack levels used:    1
 Hardware stack levels required when called:    9
 This function calls:
		_BufferCopy
		_cleanBuffer
 This function is called by:
		_Command
 This function uses a non-reentrant model


 *************** function _READ_RTC_TIME *****************
 Defined at:
		line 139 in file "RTC.c"
 Parameters:    Size  Location     Type
		None
 Auto vars:     Size  Location     Type
  temp            7   24[BANK1 ] unsigned char [7]
  Error           1   31[BANK1 ] char 
 Return value:  Size  Location     Type
                  1    wreg      unsigned char 
 Registers used:
		wreg, fsr2l, fsr2h, status,2, status,0, prodl, prodh, cstack
 Tracked objects:
		On entry : 
		On exit  : 
		Unchanged: 
 Data sizes:     COMRAM   BANK0   BANK1   BANK2   BANK3   BANK4   BANK5   BANK6   BANK7   BANK8   BANK9  BANK10  BANK11  BANK12
      Params:         0       0       0       0       0       0       0       0       0       0       0       0       0       0
      Locals:         0       0       8       0       0       0       0       0       0       0       0       0       0       0
      Temps:          0       0       0       0       0       0       0       0       0       0       0       0       0       0
      Totals:         0       0       8       0       0       0       0       0       0       0       0       0       0       0
Total ram usage:        8 bytes
 Hardware stack levels used:    1
 Hardware stack levels required when called:   10
 This function calls:
		_I2C_Read_Sequential
		_ResetI2C
 This function is called by:
		_Command
 This function uses a non-reentrant model


 *************** function _ResetI2C *****************
 Defined at:
		line 93 in file "I2C.c"
 Parameters:    Size  Location     Type
		None
 Auto vars:     Size  Location     Type
		None
 Return value:  Size  Location     Type
		None               void
 Registers used:
		wreg, status,2, status,0, cstack
 Tracked objects:
		On entry : 
		On exit  : 
		Unchanged: 
 Data sizes:     COMRAM   BANK0   BANK1   BANK2   BANK3   BANK4   BANK5   BANK6   BANK7   BANK8   BANK9  BANK10  BANK11  BANK12
      Params:         0       0       0       0       0       0       0       0       0       0       0       0       0       0
      Locals:         0       0       0       0       0       0       0       0       0       0       0       0       0       0
      Temps:          0       0       0       0       0       0       0       0       0       0       0       0       0       0
      Totals:         0       0       0       0       0       0       0       0       0       0       0       0       0       0
Total ram usage:        0 bytes
 Hardware stack levels used:    1
 Hardware stack levels required when called:    9
 This function calls:
		_Init_I2C_Master
		_delayUS
 This function is called by:
		_RTC_Clock_Enable
		_RTC_TIME_NONMilitary
		_READ_RTC_TIME
		_RTC_Clock_Disable
		_READ_RTC_SECONDS
 This function uses a non-reentrant model


 *************** function _Init_I2C_Master *****************
 Defined at:
		line 55 in file "I2C.c"
 Parameters:    Size  Location     Type
		None
 Auto vars:     Size  Location     Type
  baud            2   16[BANK1 ] unsigned int 
 Return value:  Size  Location     Type
		None               void
 Registers used:
		wreg, status,2, status,0, cstack
 Tracked objects:
		On entry : 
		On exit  : 
		Unchanged: 
 Data sizes:     COMRAM   BANK0   BANK1   BANK2   BANK3   BANK4   BANK5   BANK6   BANK7   BANK8   BANK9  BANK10  BANK11  BANK12
      Params:         0       0       0       0       0       0       0       0       0       0       0       0       0       0
      Locals:         0       0       2       0       0       0       0       0       0       0       0       0       0       0
      Temps:          0       0       0       0       0       0       0       0       0       0       0       0       0       0
      Totals:         0       0       2       0       0       0       0       0       0       0       0       0       0       0
Total ram usage:        2 bytes
 Hardware stack levels used:    1
 Hardware stack levels required when called:    8
 This function calls:
		_OpenI2C
 This function is called by:
		_main
		_ResetI2C
 This function uses a non-reentrant model


 *************** function _OpenI2C *****************
 Defined at:
		line 74 in file "I2C.c"
 Parameters:    Size  Location     Type
  sync_mode       1    wreg     unsigned char 
  slew            1   14[BANK1 ] unsigned char 
 Auto vars:     Size  Location     Type
  sync_mode       1   15[BANK1 ] unsigned char 
 Return value:  Size  Location     Type
		None               void
 Registers used:
		wreg, status,2, status,0
 Tracked objects:
		On entry : 
		On exit  : 
		Unchanged: 
 Data sizes:     COMRAM   BANK0   BANK1   BANK2   BANK3   BANK4   BANK5   BANK6   BANK7   BANK8   BANK9  BANK10  BANK11  BANK12
      Params:         0       0       1       0       0       0       0       0       0       0       0       0       0       0
      Locals:         0       0       1       0       0       0       0       0       0       0       0       0       0       0
      Temps:          0       0       0       0       0       0       0       0       0       0       0       0       0       0
      Totals:         0       0       2       0       0       0       0       0       0       0       0       0       0       0
Total ram usage:        2 bytes
 Hardware stack levels used:    1
 Hardware stack levels required when called:    7
 This function calls:
		Nothing
 This function is called by:
		_Init_I2C_Master
 This function uses a non-reentrant model


 *************** function _I2C_Read_Sequential *****************
 Defined at:
		line 307 in file "I2C.c"
 Parameters:    Size  Location     Type
  I2Caddress      1    wreg     unsigned char 
  Register        1   17[BANK1 ] unsigned char 
  rdptr           2   18[BANK1 ] PTR unsigned char 
		 -> READ_RTC_TIME@temp(7), 
  length          1   20[BANK1 ] unsigned char 
 Auto vars:     Size  Location     Type
  I2Caddress      1   21[BANK1 ] unsigned char 
 Return value:  Size  Location     Type
                  1    wreg      unsigned char 
 Registers used:
		wreg, fsr2l, fsr2h, status,2, status,0, cstack
 Tracked objects:
		On entry : 
		On exit  : 
		Unchanged: 
 Data sizes:     COMRAM   BANK0   BANK1   BANK2   BANK3   BANK4   BANK5   BANK6   BANK7   BANK8   BANK9  BANK10  BANK11  BANK12
      Params:         0       0       4       0       0       0       0       0       0       0       0       0       0       0
      Locals:         0       0       1       0       0       0       0       0       0       0       0       0       0       0
      Temps:          0       0       0       0       0       0       0       0       0       0       0       0       0       0
      Totals:         0       0       5       0       0       0       0       0       0       0       0       0       0       0
Total ram usage:        5 bytes
 Hardware stack levels used:    1
 Hardware stack levels required when called:    9
 This function calls:
		_IdleI2C
		_Multiple_I2C_Read
		_WriteI2C
 This function is called by:
		_READ_RTC_TIME
 This function uses a non-reentrant model


 *************** function _WriteI2C *****************
 Defined at:
		line 119 in file "I2C.c"
 Parameters:    Size  Location     Type
  data_out        1    wreg     unsigned char 
 Auto vars:     Size  Location     Type
  data_out        1   15[BANK1 ] unsigned char 
 Return value:  Size  Location     Type
                  1    wreg      char 
 Registers used:
		wreg, status,2, status,0, cstack
 Tracked objects:
		On entry : 
		On exit  : 
		Unchanged: 
 Data sizes:     COMRAM   BANK0   BANK1   BANK2   BANK3   BANK4   BANK5   BANK6   BANK7   BANK8   BANK9  BANK10  BANK11  BANK12
      Params:         0       0       0       0       0       0       0       0       0       0       0       0       0       0
      Locals:         0       0       1       0       0       0       0       0       0       0       0       0       0       0
      Temps:          0       0       0       0       0       0       0       0       0       0       0       0       0       0
      Totals:         0       0       1       0       0       0       0       0       0       0       0       0       0       0
Total ram usage:        1 bytes
 Hardware stack levels used:    1
 Hardware stack levels required when called:    8
 This function calls:
		_IdleI2C
 This function is called by:
		_I2C_Write_At_Address
		_I2C_Read_At_Address
		_I2C_Read_Sequential
 This function uses a non-reentrant model


 *************** function _IdleI2C *****************
 Defined at:
		line 108 in file "I2C.c"
 Parameters:    Size  Location     Type
		None
 Auto vars:     Size  Location     Type
		None
 Return value:  Size  Location     Type
		None               void
 Registers used:
		wreg, status,2, status,0
 Tracked objects:
		On entry : 
		On exit  : 
		Unchanged: 
 Data sizes:     COMRAM   BANK0   BANK1   BANK2   BANK3   BANK4   BANK5   BANK6   BANK7   BANK8   BANK9  BANK10  BANK11  BANK12
      Params:         0       0       0       0       0       0       0       0       0       0       0       0       0       0
      Locals:         0       0       0       0       0       0       0       0       0       0       0       0       0       0
      Temps:          0       0       1       0       0       0       0       0       0       0       0       0       0       0
      Totals:         0       0       1       0       0       0       0       0       0       0       0       0       0       0
Total ram usage:        1 bytes
 Hardware stack levels used:    1
 Hardware stack levels required when called:    7
 This function calls:
		Nothing
 This function is called by:
		_WriteI2C
		_I2C_Write_At_Address
		_I2C_Read_At_Address
		_I2C_Read_Sequential
 This function uses a non-reentrant model


 *************** function _Multiple_I2C_Read *****************
 Defined at:
		line 387 in file "I2C.c"
 Parameters:    Size  Location     Type
  rdptr           2   14[BANK1 ] PTR unsigned char 
		 -> READ_RTC_TIME@temp(7), 
  length          1   16[BANK1 ] unsigned char 
 Auto vars:     Size  Location     Type
		None
 Return value:  Size  Location     Type
                  1    wreg      unsigned char 
 Registers used:
		wreg, fsr2l, fsr2h, status,2, status,0, cstack
 Tracked objects:
		On entry : 
		On exit  : 
		Unchanged: 
 Data sizes:     COMRAM   BANK0   BANK1   BANK2   BANK3   BANK4   BANK5   BANK6   BANK7   BANK8   BANK9  BANK10  BANK11  BANK12
      Params:         0       0       3       0       0       0       0       0       0       0       0       0       0       0
      Locals:         0       0       0       0       0       0       0       0       0       0       0       0       0       0
      Temps:          0       0       0       0       0       0       0       0       0       0       0       0       0       0
      Totals:         0       0       3       0       0       0       0       0       0       0       0       0       0       0
Total ram usage:        3 bytes
 Hardware stack levels used:    1
 Hardware stack levels required when called:    8
 This function calls:
		_readI2C
 This function is called by:
		_I2C_Read_Sequential
 This function uses a non-reentrant model


 *************** function _readI2C *****************
 Defined at:
		line 418 in file "I2C.c"
 Parameters:    Size  Location     Type
		None
 Auto vars:     Size  Location     Type
		None
 Return value:  Size  Location     Type
                  1    wreg      unsigned char 
 Registers used:
		wreg, status,2, status,0
 Tracked objects:
		On entry : 
		On exit  : 
		Unchanged: 
 Data sizes:     COMRAM   BANK0   BANK1   BANK2   BANK3   BANK4   BANK5   BANK6   BANK7   BANK8   BANK9  BANK10  BANK11  BANK12
      Params:         0       0       0       0       0       0       0       0       0       0       0       0       0       0
      Locals:         0       0       0       0       0       0       0       0       0       0       0       0       0       0
      Temps:          0       0       0       0       0       0       0       0       0       0       0       0       0       0
      Totals:         0       0       0       0       0       0       0       0       0       0       0       0       0       0
Total ram usage:        0 bytes
 Hardware stack levels used:    1
 Hardware stack levels required when called:    7
 This function calls:
		Nothing
 This function is called by:
		_Multiple_I2C_Read
 This function uses a non-reentrant model


 *************** function _Parse_Time *****************
 Defined at:
		line 279 in file "RTC.c"
 Parameters:    Size  Location     Type
  This            2   14[BANK1 ] PTR unsigned char 
		 -> Rxdata(100), 
 Auto vars:     Size  Location     Type
  TempTime        9   18[BANK1 ] struct TIME
  temp            1   17[BANK1 ] unsigned char 
 Return value:  Size  Location     Type
                  1    wreg      unsigned char 
 Registers used:
		wreg, fsr2l, fsr2h, status,2, status,0, prodl, prodh
 Tracked objects:
		On entry : 
		On exit  : 
		Unchanged: 
 Data sizes:     COMRAM   BANK0   BANK1   BANK2   BANK3   BANK4   BANK5   BANK6   BANK7   BANK8   BANK9  BANK10  BANK11  BANK12
      Params:         0       0       2       0       0       0       0       0       0       0       0       0       0       0
      Locals:         0       0      10       0       0       0       0       0       0       0       0       0       0       0
      Temps:          0       0       1       0       0       0       0       0       0       0       0       0       0       0
      Totals:         0       0      13       0       0       0       0       0       0       0       0       0       0       0
Total ram usage:       13 bytes
 Hardware stack levels used:    1
 Hardware stack levels required when called:    7
 This function calls:
		Nothing
 This function is called by:
		_Command
 This function uses a non-reentrant model


 *************** function _LCDdisplayFeedback *****************
 Defined at:
		line 255 in file "LCD.c"
 Parameters:    Size  Location     Type
  Text            2   32[BANK1 ] PTR const unsigned char 
		 -> STR_318(16), STR_316(16), STR_262(16), STR_260(16), 
		 -> STR_257(15), STR_205(16), STR_203(16), STR_201(13), 
		 -> STR_188(14), STR_186(16), STR_184(15), STR_173(16), 
		 -> Command@buf(200), STR_169(14), STR_167(16), STR_165(15), 
		 -> STR_147(13), STR_145(15), STR_141(14), STR_137(16), 
		 -> STR_124(16), STR_116(16), STR_114(16), STR_111(15), 
		 -> STR_108(15), STR_105(14), STR_102(16), STR_90(16), 
		 -> STR_83(16), STR_81(15), STR_78(14), STR_75(16), 
		 -> STR_59(12), STR_57(9), STR_54(8), STR_51(13), 
		 -> STR_48(9), STR_45(8), STR_42(13), 
 Auto vars:     Size  Location     Type
		None
 Return value:  Size  Location     Type
		None               void
 Registers used:
		wreg, fsr0l, fsr0h, status,2, status,0, tblptrl, tblptrh, tblptru, cstack
 Tracked objects:
		On entry : 
		On exit  : 
		Unchanged: 
 Data sizes:     COMRAM   BANK0   BANK1   BANK2   BANK3   BANK4   BANK5   BANK6   BANK7   BANK8   BANK9  BANK10  BANK11  BANK12
      Params:         0       0       2       0       0       0       0       0       0       0       0       0       0       0
      Locals:         0       0       0       0       0       0       0       0       0       0       0       0       0       0
      Temps:          0       0       0       0       0       0       0       0       0       0       0       0       0       0
      Totals:         0       0       2       0       0       0       0       0       0       0       0       0       0       0
Total ram usage:        2 bytes
 Hardware stack levels used:    1
 Hardware stack levels required when called:   11
 This function calls:
		_ClearLCD
		_LCDPrintString
		_Reset_Timer1
		_SetLCDcursor
		_Start_Timer1
 This function is called by:
		_Command
 This function uses a non-reentrant model


 *************** function _SetLCDcursor *****************
 Defined at:
		line 195 in file "LCD.c"
 Parameters:    Size  Location     Type
  Row             1    wreg     unsigned char 
  Col             1   28[BANK1 ] unsigned char 
 Auto vars:     Size  Location     Type
  Row             1   29[BANK1 ] unsigned char 
  address         1   30[BANK1 ] unsigned char 
 Return value:  Size  Location     Type
		None               void
 Registers used:
		wreg, status,2, status,0, cstack
 Tracked objects:
		On entry : 
		On exit  : 
		Unchanged: 
 Data sizes:     COMRAM   BANK0   BANK1   BANK2   BANK3   BANK4   BANK5   BANK6   BANK7   BANK8   BANK9  BANK10  BANK11  BANK12
      Params:         0       0       1       0       0       0       0       0       0       0       0       0       0       0
      Locals:         0       0       2       0       0       0       0       0       0       0       0       0       0       0
      Temps:          0       0       0       0       0       0       0       0       0       0       0       0       0       0
      Totals:         0       0       3       0       0       0       0       0       0       0       0       0       0       0
Total ram usage:        3 bytes
 Hardware stack levels used:    1
 Hardware stack levels required when called:   10
 This function calls:
		_SendLCDbyte
 This function is called by:
		_main
		_Command
		_LCDdisplayFeedback
 This function uses a non-reentrant model


 *************** function _LCDPrintString *****************
 Defined at:
		line 236 in file "LCD.c"
 Parameters:    Size  Location     Type
  Text            2   28[BANK1 ] PTR const unsigned char 
		 -> Scroll_10(16), Scroll_9(16), Scroll_8(16), Scroll_7(16), 
		 -> Scroll_6(16), Scroll_5(16), Scroll_4(16), Scroll_3(16), 
		 -> Scroll_2(16), Scroll_1(16), STR_318(16), STR_316(16), 
		 -> STR_289(17), STR_284(10), STR_262(16), STR_260(16), 
		 -> STR_257(15), STR_229(17), STR_225(17), STR_205(16), 
		 -> STR_203(16), STR_201(13), STR_188(14), STR_186(16), 
		 -> STR_184(15), STR_173(16), Command@buf(200), STR_169(14), 
		 -> STR_167(16), STR_165(15), STR_147(13), STR_145(15), 
		 -> STR_141(14), STR_137(16), STR_124(16), STR_116(16), 
		 -> STR_114(16), STR_111(15), STR_108(15), STR_105(14), 
		 -> STR_102(16), STR_90(16), STR_83(16), STR_81(15), 
		 -> STR_78(14), STR_75(16), STR_59(12), STR_57(9), 
		 -> STR_54(8), STR_51(13), STR_48(9), STR_45(8), 
		 -> STR_42(13), STR_20(10), STR_19(17), STR_18(16), 
		 -> STR_17(15), STR_16(14), STR_15(13), STR_14(12), 
		 -> STR_13(11), STR_12(10), STR_10(9), STR_9(14), 
		 -> low_isr@LCD_TEMP(16), 
 Auto vars:     Size  Location     Type
  c               2   30[BANK1 ] PTR unsigned char 
		 -> Scroll_10(16), Scroll_9(16), Scroll_8(16), Scroll_7(16), 
		 -> Scroll_6(16), Scroll_5(16), Scroll_4(16), Scroll_3(16), 
		 -> Scroll_2(16), Scroll_1(16), STR_318(16), STR_316(16), 
		 -> STR_289(17), STR_284(10), STR_262(16), STR_260(16), 
		 -> STR_257(15), STR_229(17), STR_225(17), STR_205(16), 
		 -> STR_203(16), STR_201(13), STR_188(14), STR_186(16), 
		 -> STR_184(15), STR_173(16), Command@buf(200), STR_169(14), 
		 -> STR_167(16), STR_165(15), STR_147(13), STR_145(15), 
		 -> STR_141(14), STR_137(16), STR_124(16), STR_116(16), 
		 -> STR_114(16), STR_111(15), STR_108(15), STR_105(14), 
		 -> STR_102(16), STR_90(16), STR_83(16), STR_81(15), 
		 -> STR_78(14), STR_75(16), STR_59(12), STR_57(9), 
		 -> STR_54(8), STR_51(13), STR_48(9), STR_45(8), 
		 -> STR_42(13), STR_20(10), STR_19(17), STR_18(16), 
		 -> STR_17(15), STR_16(14), STR_15(13), STR_14(12), 
		 -> STR_13(11), STR_12(10), STR_10(9), STR_9(14), 
		 -> low_isr@LCD_TEMP(16), 
 Return value:  Size  Location     Type
		None               void
 Registers used:
		wreg, fsr0l, fsr0h, status,2, status,0, tblptrl, tblptrh, tblptru, cstack
 Tracked objects:
		On entry : 
		On exit  : 
		Unchanged: 
 Data sizes:     COMRAM   BANK0   BANK1   BANK2   BANK3   BANK4   BANK5   BANK6   BANK7   BANK8   BANK9  BANK10  BANK11  BANK12
      Params:         0       0       2       0       0       0       0       0       0       0       0       0       0       0
      Locals:         0       0       2       0       0       0       0       0       0       0       0       0       0       0
      Temps:          0       0       0       0       0       0       0       0       0       0       0       0       0       0
      Totals:         0       0       4       0       0       0       0       0       0       0       0       0       0       0
Total ram usage:        4 bytes
 Hardware stack levels used:    1
 Hardware stack levels required when called:   10
 This function calls:
		_SendLCDbyte
 This function is called by:
		_main
		_Command
		_LCDdisplayFeedback
 This function uses a non-reentrant model


 *************** function _ClearLCD *****************
 Defined at:
		line 222 in file "LCD.c"
 Parameters:    Size  Location     Type
		None
 Auto vars:     Size  Location     Type
		None
 Return value:  Size  Location     Type
		None               void
 Registers used:
		wreg, status,2, status,0, cstack
 Tracked objects:
		On entry : 
		On exit  : 
		Unchanged: 
 Data sizes:     COMRAM   BANK0   BANK1   BANK2   BANK3   BANK4   BANK5   BANK6   BANK7   BANK8   BANK9  BANK10  BANK11  BANK12
      Params:         0       0       0       0       0       0       0       0       0       0       0       0       0       0
      Locals:         0       0       0       0       0       0       0       0       0       0       0       0       0       0
      Temps:          0       0       0       0       0       0       0       0       0       0       0       0       0       0
      Totals:         0       0       0       0       0       0       0       0       0       0       0       0       0       0
Total ram usage:        0 bytes
 Hardware stack levels used:    1
 Hardware stack levels required when called:   10
 This function calls:
		_SendLCDbyte
 This function is called by:
		_main
		_init_LCD
		_LCDdisplayFeedback
 This function uses a non-reentrant model


 *************** function _SendLCDbyte *****************
 Defined at:
		line 109 in file "LCD.c"
 Parameters:    Size  Location     Type
  data            1    wreg     unsigned char 
  isCommand       1   24[BANK1 ] unsigned char 
 Auto vars:     Size  Location     Type
  data            1   25[BANK1 ] unsigned char 
  LSB_nibble      1   27[BANK1 ] unsigned char 
  MSB_nibble      1   26[BANK1 ] unsigned char 
 Return value:  Size  Location     Type
		None               void
 Registers used:
		wreg, status,2, status,0, cstack
 Tracked objects:
		On entry : 
		On exit  : 
		Unchanged: 
 Data sizes:     COMRAM   BANK0   BANK1   BANK2   BANK3   BANK4   BANK5   BANK6   BANK7   BANK8   BANK9  BANK10  BANK11  BANK12
      Params:         0       0       1       0       0       0       0       0       0       0       0       0       0       0
      Locals:         0       0       3       0       0       0       0       0       0       0       0       0       0       0
      Temps:          0       0       0       0       0       0       0       0       0       0       0       0       0       0
      Totals:         0       0       4       0       0       0       0       0       0       0       0       0       0       0
Total ram usage:        4 bytes
 Hardware stack levels used:    1
 Hardware stack levels required when called:    9
 This function calls:
		_PulseEnablePin
		_delayUS
 This function is called by:
		_init_LCD
		_SetLCDcursor
		_ClearLCD
		_LCDPrintString
		_LCDPrintChar
 This function uses a non-reentrant model


 *************** function _PulseEnablePin *****************
 Defined at:
		line 180 in file "LCD.c"
 Parameters:    Size  Location     Type
		None
 Auto vars:     Size  Location     Type
		None
 Return value:  Size  Location     Type
		None               void
 Registers used:
		wreg, status,2, status,0, cstack
 Tracked objects:
		On entry : 
		On exit  : 
		Unchanged: 
 Data sizes:     COMRAM   BANK0   BANK1   BANK2   BANK3   BANK4   BANK5   BANK6   BANK7   BANK8   BANK9  BANK10  BANK11  BANK12
      Params:         0       0       0       0       0       0       0       0       0       0       0       0       0       0
      Locals:         0       0       0       0       0       0       0       0       0       0       0       0       0       0
      Temps:          0       0       0       0       0       0       0       0       0       0       0       0       0       0
      Totals:         0       0       0       0       0       0       0       0       0       0       0       0       0       0
Total ram usage:        0 bytes
 Hardware stack levels used:    1
 Hardware stack levels required when called:    8
 This function calls:
		_delayUS
 This function is called by:
		_init_LCD
		_SendLCDbyte
 This function uses a non-reentrant model


 *************** function _delayUS *****************
 Defined at:
		line 57 in file "MISC.c"
 Parameters:    Size  Location     Type
  US              4   14[BANK1 ] long 
 Auto vars:     Size  Location     Type
  i               4   19[BANK1 ] long 
  j               1   23[BANK1 ] unsigned char 
 Return value:  Size  Location     Type
		None               void
 Registers used:
		wreg, status,2, status,0
 Tracked objects:
		On entry : 
		On exit  : 
		Unchanged: 
 Data sizes:     COMRAM   BANK0   BANK1   BANK2   BANK3   BANK4   BANK5   BANK6   BANK7   BANK8   BANK9  BANK10  BANK11  BANK12
      Params:         0       0       4       0       0       0       0       0       0       0       0       0       0       0
      Locals:         0       0       5       0       0       0       0       0       0       0       0       0       0       0
      Temps:          0       0       1       0       0       0       0       0       0       0       0       0       0       0
      Totals:         0       0      10       0       0       0       0       0       0       0       0       0       0       0
Total ram usage:       10 bytes
 Hardware stack levels used:    1
 Hardware stack levels required when called:    7
 This function calls:
		Nothing
 This function is called by:
		_main
		_InitApp
		_UARTstringWAIT
		_SetBaud
		_Command
		_Send_Config1
		_Zero_Config1
		_One_Config1
		_f_Config1
		_Send_Config2
		_Zero_Config2
		_One_Config2
		_init_LCD
		_SendLCDbyte
		_PulseEnablePin
		_ResetI2C
 This function uses a non-reentrant model


 *************** function _LCD_Scroll *****************
 Defined at:
		line 414 in file "LCD.c"
 Parameters:    Size  Location     Type
  This            2   29[BANK1 ] PTR const unsigned char 
		 -> STR_298(6), STR_297(5), STR_296(5), STR_295(10), 
		 -> STR_294(16), STR_293(11), STR_292(12), STR_291(9), 
		 -> STR_290(14), STR_270(6), STR_269(9), STR_268(14), 
		 -> STR_252(4), STR_251(5), STR_250(8), STR_249(10), 
		 -> STR_248(9), STR_217(2), STR_216(10), STR_215(9), 
		 -> STR_196(10), STR_195(10), STR_194(13), STR_179(10), 
		 -> STR_178(10), STR_177(17), STR_157(6), STR_156(6), 
		 -> STR_155(9), STR_154(10), STR_129(7), STR_128(4), 
		 -> STR_127(6), STR_126(9), STR_125(13), STR_94(4), 
		 -> STR_93(6), STR_92(9), STR_91(14), STR_69(5), 
		 -> STR_68(5), STR_67(9), STR_66(9), 
 Auto vars:     Size  Location     Type
		None
 Return value:  Size  Location     Type
		None               void
 Registers used:
		wreg, fsr0l, fsr0h, fsr2l, fsr2h, status,2, status,0, tblptrl, tblptrh, tblptru, prodl, prodh, cstack
 Tracked objects:
		On entry : 
		On exit  : 
		Unchanged: 
 Data sizes:     COMRAM   BANK0   BANK1   BANK2   BANK3   BANK4   BANK5   BANK6   BANK7   BANK8   BANK9  BANK10  BANK11  BANK12
      Params:         0       0       2       0       0       0       0       0       0       0       0       0       0       0
      Locals:         0       0       0       0       0       0       0       0       0       0       0       0       0       0
      Temps:          0       0       0       0       0       0       0       0       0       0       0       0       0       0
      Totals:         0       0       2       0       0       0       0       0       0       0       0       0       0       0
Total ram usage:        2 bytes
 Hardware stack levels used:    1
 Hardware stack levels required when called:    9
 This function calls:
		_BufferCopy
		_Start_Timer1
 This function is called by:
		_Command
 This function uses a non-reentrant model


 *************** function _Start_Timer1 *****************
 Defined at:
		line 151 in file "Timer.c"
 Parameters:    Size  Location     Type
		None
 Auto vars:     Size  Location     Type
		None
 Return value:  Size  Location     Type
		None               void
 Registers used:
		wreg, status,2, cstack
 Tracked objects:
		On entry : 
		On exit  : 
		Unchanged: 
 Data sizes:     COMRAM   BANK0   BANK1   BANK2   BANK3   BANK4   BANK5   BANK6   BANK7   BANK8   BANK9  BANK10  BANK11  BANK12
      Params:         0       0       0       0       0       0       0       0       0       0       0       0       0       0
      Locals:         0       0       0       0       0       0       0       0       0       0       0       0       0       0
      Temps:          0       0       0       0       0       0       0       0       0       0       0       0       0       0
      Totals:         0       0       0       0       0       0       0       0       0       0       0       0       0       0
Total ram usage:        0 bytes
 Hardware stack levels used:    1
 Hardware stack levels required when called:    8
 This function calls:
		_Reset_Timer1
 This function is called by:
		_LCDdisplayFeedback
		_LCD_Scroll
 This function uses a non-reentrant model


 *************** function _Reset_Timer1 *****************
 Defined at:
		line 167 in file "Timer.c"
 Parameters:    Size  Location     Type
		None
 Auto vars:     Size  Location     Type
		None
 Return value:  Size  Location     Type
		None               void
 Registers used:
		wreg, status,2
 Tracked objects:
		On entry : 
		On exit  : 
		Unchanged: 
 Data sizes:     COMRAM   BANK0   BANK1   BANK2   BANK3   BANK4   BANK5   BANK6   BANK7   BANK8   BANK9  BANK10  BANK11  BANK12
      Params:         0       0       0       0       0       0       0       0       0       0       0       0       0       0
      Locals:         0       0       0       0       0       0       0       0       0       0       0       0       0       0
      Temps:          0       0       0       0       0       0       0       0       0       0       0       0       0       0
      Totals:         0       0       0       0       0       0       0       0       0       0       0       0       0       0
Total ram usage:        0 bytes
 Hardware stack levels used:    1
 Hardware stack levels required when called:    7
 This function calls:
		Nothing
 This function is called by:
		_LCDdisplayFeedback
		_Start_Timer1
 This function uses a non-reentrant model


 *************** function _BufferCopy *****************
 Defined at:
		line 103 in file "MISC.c"
 Parameters:    Size  Location     Type
  from            2   22[BANK1 ] PTR unsigned char 
		 -> STR_298(6), STR_297(5), STR_296(5), STR_295(10), 
		 -> STR_294(16), STR_293(11), STR_292(12), STR_291(9), 
		 -> STR_290(14), STR_270(6), STR_269(9), STR_268(14), 
		 -> STR_252(4), STR_251(5), STR_250(8), STR_249(10), 
		 -> STR_248(9), STR_217(2), STR_216(10), STR_215(9), 
		 -> STR_196(10), STR_195(10), STR_194(13), STR_179(10), 
		 -> STR_178(10), STR_177(17), STR_157(6), STR_156(6), 
		 -> STR_155(9), STR_154(10), STR_129(7), STR_128(4), 
		 -> STR_127(6), STR_126(9), STR_125(13), STR_94(4), 
		 -> STR_93(6), STR_92(9), STR_91(14), STR_69(5), 
		 -> STR_68(5), STR_67(9), STR_66(9), StringAddEqual@temp(100), 
		 -> RemoveSpaces@That(100), low_isr@TEMP_Rxdata(100), 
  to              2   24[BANK1 ] PTR unsigned char 
		 -> Scroll_10(16), Scroll_9(16), Scroll_8(16), Scroll_7(16), 
		 -> Scroll_6(16), Scroll_5(16), Scroll_4(16), Scroll_3(16), 
		 -> Scroll_2(16), Scroll_1(16), Rxdata(100), 
  count           1   26[BANK1 ] unsigned char 
  shift           1   27[BANK1 ] unsigned char 
 Auto vars:     Size  Location     Type
  i               1   28[BANK1 ] unsigned char 
 Return value:  Size  Location     Type
		None               void
 Registers used:
		wreg, fsr0l, fsr0h, fsr2l, fsr2h, status,2, status,0, tblptrl, tblptrh, tblptru, prodl, prodh, cstack
 Tracked objects:
		On entry : 
		On exit  : 
		Unchanged: 
 Data sizes:     COMRAM   BANK0   BANK1   BANK2   BANK3   BANK4   BANK5   BANK6   BANK7   BANK8   BANK9  BANK10  BANK11  BANK12
      Params:         0       0       6       0       0       0       0       0       0       0       0       0       0       0
      Locals:         0       0       1       0       0       0       0       0       0       0       0       0       0       0
      Temps:          0       0       0       0       0       0       0       0       0       0       0       0       0       0
      Totals:         0       0       7       0       0       0       0       0       0       0       0       0       0       0
Total ram usage:        7 bytes
 Hardware stack levels used:    1
 Hardware stack levels required when called:    8
 This function calls:
		_cleanBuffer
 This function is called by:
		_RemoveSpaces
		_StringAddEqual
		_LCD_Scroll
 This function uses a non-reentrant model


 *************** function _cleanBuffer *****************
 Defined at:
		line 75 in file "MISC.c"
 Parameters:    Size  Location     Type
  data            2   14[BANK1 ] PTR unsigned char 
		 -> Scroll_10(16), Scroll_9(16), Scroll_8(16), Scroll_7(16), 
		 -> Scroll_6(16), Scroll_5(16), Scroll_4(16), Scroll_3(16), 
		 -> Scroll_2(16), Scroll_1(16), StringAddEqual@temp(100), RemoveSpaces@That(100), 
		 -> Rxdata(100), low_isr@TEMP_Rxdata(100), 
  count           2   16[BANK1 ] int 
 Auto vars:     Size  Location     Type
  i               1   21[BANK1 ] unsigned char 
 Return value:  Size  Location     Type
		None               void
 Registers used:
		wreg, fsr2l, fsr2h, status,2, status,0, prodl, prodh
 Tracked objects:
		On entry : 
		On exit  : 
		Unchanged: 
 Data sizes:     COMRAM   BANK0   BANK1   BANK2   BANK3   BANK4   BANK5   BANK6   BANK7   BANK8   BANK9  BANK10  BANK11  BANK12
      Params:         0       0       4       0       0       0       0       0       0       0       0       0       0       0
      Locals:         0       0       1       0       0       0       0       0       0       0       0       0       0       0
      Temps:          0       0       3       0       0       0       0       0       0       0       0       0       0       0
      Totals:         0       0       8       0       0       0       0       0       0       0       0       0       0       0
Total ram usage:        8 bytes
 Hardware stack levels used:    1
 Hardware stack levels required when called:    7
 This function calls:
		Nothing
 This function is called by:
		_main
		_BufferCopy
		_RemoveSpaces
		_StringAddEqual
		_Command
 This function uses a non-reentrant model


 *************** function _InternalADC_Read *****************
 Defined at:
		line 110 in file "ADC.c"
 Parameters:    Size  Location     Type
  channel         1    wreg     unsigned char 
 Auto vars:     Size  Location     Type
  channel         1   33[BANK1 ] unsigned char 
 Return value:  Size  Location     Type
                  2   29[BANK1 ] int 
 Registers used:
		wreg, fsr0l, fsr0h, status,2, status,0, tblptrl, tblptrh, tblptru, cstack
 Tracked objects:
		On entry : 
		On exit  : 
		Unchanged: 
 Data sizes:     COMRAM   BANK0   BANK1   BANK2   BANK3   BANK4   BANK5   BANK6   BANK7   BANK8   BANK9  BANK10  BANK11  BANK12
      Params:         0       0       2       0       0       0       0       0       0       0       0       0       0       0
      Locals:         0       0       1       0       0       0       0       0       0       0       0       0       0       0
      Temps:          0       0       2       0       0       0       0       0       0       0       0       0       0       0
      Totals:         0       0       5       0       0       0       0       0       0       0       0       0       0       0
Total ram usage:        5 bytes
 Hardware stack levels used:    1
 Hardware stack levels required when called:   10
 This function calls:
		_UARTstring
 This function is called by:
		_Command
		_RTC_INIT
 This function uses a non-reentrant model


 *************** function _UARTstring *****************
 Defined at:
		line 233 in file "UART.c"
 Parameters:    Size  Location     Type
  data            2   25[BANK1 ] PTR const unsigned char 
		 -> STR_324(44), STR_320(26), STR_319(3), STR_317(18), 
		 -> STR_315(18), STR_311(20), STR_288(24), STR_285(3), 
		 -> STR_283(15), STR_282(22), STR_281(50), STR_280(8), 
		 -> STR_279(6), STR_278(6), STR_277(11), STR_276(17), 
		 -> STR_275(12), STR_274(13), STR_273(10), STR_272(12), 
		 -> STR_267(28), STR_266(68), STR_265(9), STR_264(11), 
		 -> STR_263(23), STR_261(19), STR_259(20), STR_256(20), 
		 -> STR_247(21), STR_246(61), STR_245(69), STR_244(7), 
		 -> STR_243(7), STR_242(10), STR_241(11), STR_240(29), 
		 -> STR_239(13), STR_238(33), STR_237(25), STR_236(28), 
		 -> STR_235(3), STR_234(26), STR_233(2), STR_232(34), 
		 -> STR_231(37), STR_228(24), STR_224(3), STR_214(13), 
		 -> STR_213(73), STR_212(5), STR_211(12), STR_210(17), 
		 -> STR_204(28), STR_202(30), STR_200(33), STR_193(42), 
		 -> STR_192(62), STR_191(26), STR_187(43), STR_185(48), 
		 -> STR_183(27), STR_176(42), STR_175(66), STR_174(25), 
		 -> STR_172(49), Command@buf(200), STR_168(33), STR_166(38), 
		 -> STR_164(27), STR_163(28), STR_153(37), STR_152(68), 
		 -> STR_151(18), STR_150(15), STR_149(11), STR_148(28), 
		 -> STR_146(18), STR_144(32), STR_140(31), STR_136(38), 
		 -> STR_123(24), STR_122(68), STR_121(10), STR_120(6), 
		 -> STR_119(8), STR_118(11), STR_117(21), STR_115(16), 
		 -> STR_113(19), STR_110(18), STR_107(16), STR_104(15), 
		 -> STR_101(22), STR_89(27), STR_88(68), STR_87(7), 
		 -> STR_86(8), STR_85(11), STR_84(24), STR_82(19), 
		 -> STR_80(19), STR_77(18), STR_74(25), STR_65(17), 
		 -> STR_64(68), STR_63(8), STR_62(7), STR_61(11), 
		 -> STR_60(17), STR_58(12), STR_56(9), STR_53(8), 
		 -> STR_50(13), STR_47(9), STR_44(8), STR_41(13), 
		 -> STR_36(4), STR_35(22), STR_29(22), STR_28(3), 
		 -> SetBaud@buf(50), STR_22(4), STR_21(29), STR_11(12), 
		 -> STR_8(54), STR_7(3), Version(20), STR_6(19), 
		 -> STR_5(38), low_isr@TEMP_Rxdata(100), STR_4(2), STR_3(2), 
		 -> STR_2(2), STR_1(2), 
 Auto vars:     Size  Location     Type
		None
 Return value:  Size  Location     Type
		None               void
 Registers used:
		wreg, fsr0l, fsr0h, status,2, status,0, tblptrl, tblptrh, tblptru, cstack
 Tracked objects:
		On entry : 
		On exit  : 
		Unchanged: 
 Data sizes:     COMRAM   BANK0   BANK1   BANK2   BANK3   BANK4   BANK5   BANK6   BANK7   BANK8   BANK9  BANK10  BANK11  BANK12
      Params:         0       0       2       0       0       0       0       0       0       0       0       0       0       0
      Locals:         0       0       0       0       0       0       0       0       0       0       0       0       0       0
      Temps:          0       0       2       0       0       0       0       0       0       0       0       0       0       0
      Totals:         0       0       4       0       0       0       0       0       0       0       0       0       0       0
Total ram usage:        4 bytes
 Hardware stack levels used:    1
 Hardware stack levels required when called:    9
 This function calls:
		_UARTchar
 This function is called by:
		_main
		_SetBaud
		_Command
		_InternalADC_Read
 This function uses a non-reentrant model


 *************** function _UARTchar *****************
 Defined at:
		line 194 in file "UART.c"
 Parameters:    Size  Location     Type
  data            1    wreg     unsigned char 
  NinethBit_ov    1   21[BANK1 ] unsigned char 
  NinethBit_ov    1   22[BANK1 ] unsigned char 
 Auto vars:     Size  Location     Type
  data            1   24[BANK1 ] unsigned char 
 Return value:  Size  Location     Type
		None               void
 Registers used:
		wreg, status,2, status,0, cstack
 Tracked objects:
		On entry : 
		On exit  : 
		Unchanged: 
 Data sizes:     COMRAM   BANK0   BANK1   BANK2   BANK3   BANK4   BANK5   BANK6   BANK7   BANK8   BANK9  BANK10  BANK11  BANK12
      Params:         0       0       2       0       0       0       0       0       0       0       0       0       0       0
      Locals:         0       0       1       0       0       0       0       0       0       0       0       0       0       0
      Temps:          0       0       1       0       0       0       0       0       0       0       0       0       0       0
      Totals:         0       0       4       0       0       0       0       0       0       0       0       0       0       0
Total ram usage:        4 bytes
 Hardware stack levels used:    1
 Hardware stack levels required when called:    8
 This function calls:
		_CheckSum_byte
 This function is called by:
		_UARTstring
		_UARTstringWAIT
 This function uses a non-reentrant model


 *************** function _CheckSum_byte *****************
 Defined at:
		line 359 in file "MISC.c"
 Parameters:    Size  Location     Type
  This            2   14[BANK1 ] unsigned int 
  Odd_Even        1   16[BANK1 ] unsigned char 
 Auto vars:     Size  Location     Type
  ThisTemp        2   17[BANK1 ] unsigned int 
  i               1   20[BANK1 ] unsigned char 
  Parity          1   19[BANK1 ] unsigned char 
 Return value:  Size  Location     Type
                  1    wreg      unsigned char 
 Registers used:
		wreg, status,2, status,0
 Tracked objects:
		On entry : 
		On exit  : 
		Unchanged: 
 Data sizes:     COMRAM   BANK0   BANK1   BANK2   BANK3   BANK4   BANK5   BANK6   BANK7   BANK8   BANK9  BANK10  BANK11  BANK12
      Params:         0       0       3       0       0       0       0       0       0       0       0       0       0       0
      Locals:         0       0       4       0       0       0       0       0       0       0       0       0       0       0
      Temps:          0       0       0       0       0       0       0       0       0       0       0       0       0       0
      Totals:         0       0       7       0       0       0       0       0       0       0       0       0       0       0
Total ram usage:        7 bytes
 Hardware stack levels used:    1
 Hardware stack levels required when called:    7
 This function calls:
		Nothing
 This function is called by:
		_UARTchar
 This function uses a non-reentrant model


 *************** function _ISNUMBER *****************
 Defined at:
		line 396 in file "MISC.c"
 Parameters:    Size  Location     Type
  ascii           1    wreg     unsigned char 
 Auto vars:     Size  Location     Type
  ascii           1   14[BANK1 ] unsigned char 
 Return value:  Size  Location     Type
                  1    wreg      unsigned char 
 Registers used:
		wreg, status,2, status,0
 Tracked objects:
		On entry : 
		On exit  : 
		Unchanged: 
 Data sizes:     COMRAM   BANK0   BANK1   BANK2   BANK3   BANK4   BANK5   BANK6   BANK7   BANK8   BANK9  BANK10  BANK11  BANK12
      Params:         0       0       0       0       0       0       0       0       0       0       0       0       0       0
      Locals:         0       0       1       0       0       0       0       0       0       0       0       0       0       0
      Temps:          0       0       0       0       0       0       0       0       0       0       0       0       0       0
      Totals:         0       0       1       0       0       0       0       0       0       0       0       0       0       0
Total ram usage:        1 bytes
 Hardware stack levels used:    1
 Hardware stack levels required when called:    7
 This function calls:
		Nothing
 This function is called by:
		_Command
 This function uses a non-reentrant model


 *************** function _GetEnteredNumber *****************
 Defined at:
		line 216 in file "MISC.c"
 Parameters:    Size  Location     Type
  This            2   26[BANK1 ] PTR unsigned char 
		 -> Rxdata(100), 
 Auto vars:     Size  Location     Type
  temp            4   37[BANK1 ] long 
  negative        1   36[BANK1 ] unsigned char 
  i               1   35[BANK1 ] unsigned char 
 Return value:  Size  Location     Type
                  4   26[BANK1 ] long 
 Registers used:
		wreg, fsr2l, fsr2h, status,2, status,0, cstack
 Tracked objects:
		On entry : 
		On exit  : 
		Unchanged: 
 Data sizes:     COMRAM   BANK0   BANK1   BANK2   BANK3   BANK4   BANK5   BANK6   BANK7   BANK8   BANK9  BANK10  BANK11  BANK12
      Params:         0       0       4       0       0       0       0       0       0       0       0       0       0       0
      Locals:         0       0       6       0       0       0       0       0       0       0       0       0       0       0
      Temps:          0       0       5       0       0       0       0       0       0       0       0       0       0       0
      Totals:         0       0      15       0       0       0       0       0       0       0       0       0       0       0
Total ram usage:       15 bytes
 Hardware stack levels used:    1
 Hardware stack levels required when called:    8
 This function calls:
		___lmul
 This function is called by:
		_Command
 This function uses a non-reentrant model


 *************** function ___lmul *****************
 Defined at:
		line 15 in file "C:\Program Files (x86)\Microchip\xc8\v1.34\sources\common\Umul32.c"
 Parameters:    Size  Location     Type
  multiplier      4   14[BANK1 ] unsigned long 
  multiplicand    4   18[BANK1 ] unsigned long 
 Auto vars:     Size  Location     Type
  product         4   22[BANK1 ] unsigned long 
 Return value:  Size  Location     Type
                  4   14[BANK1 ] unsigned long 
 Registers used:
		wreg, status,2, status,0
 Tracked objects:
		On entry : 
		On exit  : 
		Unchanged: 
 Data sizes:     COMRAM   BANK0   BANK1   BANK2   BANK3   BANK4   BANK5   BANK6   BANK7   BANK8   BANK9  BANK10  BANK11  BANK12
      Params:         0       0       8       0       0       0       0       0       0       0       0       0       0       0
      Locals:         0       0       4       0       0       0       0       0       0       0       0       0       0       0
      Temps:          0       0       0       0       0       0       0       0       0       0       0       0       0       0
      Totals:         0       0      12       0       0       0       0       0       0       0       0       0       0       0
Total ram usage:       12 bytes
 Hardware stack levels used:    1
 Hardware stack levels required when called:    7
 This function calls:
		Nothing
 This function is called by:
		_GetEnteredNumber
 This function uses a non-reentrant model


 *************** function _GetBaud *****************
 Defined at:
		line 387 in file "UART.c"
 Parameters:    Size  Location     Type
		None
 Auto vars:     Size  Location     Type
		None
 Return value:  Size  Location     Type
                  4   14[BANK1 ] unsigned long 
 Registers used:
		None
 Tracked objects:
		On entry : 
		On exit  : 
		Unchanged: 
 Data sizes:     COMRAM   BANK0   BANK1   BANK2   BANK3   BANK4   BANK5   BANK6   BANK7   BANK8   BANK9  BANK10  BANK11  BANK12
      Params:         0       0       4       0       0       0       0       0       0       0       0       0       0       0
      Locals:         0       0       0       0       0       0       0       0       0       0       0       0       0       0
      Temps:          0       0       0       0       0       0       0       0       0       0       0       0       0       0
      Totals:         0       0       4       0       0       0       0       0       0       0       0       0       0       0
Total ram usage:        4 bytes
 Hardware stack levels used:    1
 Hardware stack levels required when called:    7
 This function calls:
		Nothing
 This function is called by:
		_Command
 This function uses a non-reentrant model


 *************** function _low_isr *****************
 Defined at:
		line 79 in file "interrupts.c"
 Parameters:    Size  Location     Type
		None
 Auto vars:     Size  Location     Type
  TEMP_Rxdata   100   21[BANK0 ] unsigned char [100]
  LCD_TEMP       16  121[BANK0 ] unsigned char [16]
  i               2  137[BANK0 ] int 
  rx              1  141[BANK0 ] unsigned char 
  j               1  140[BANK0 ] unsigned char 
  IRpin           1  139[BANK0 ] unsigned char 
 Return value:  Size  Location     Type
		None               void
 Registers used:
		wreg, fsr0l, fsr0h, fsr1l, fsr1h, fsr2l, fsr2h, status,2, status,0, tblptrl, tblptrh, tblptru, prodl, prodh, cstack
 Tracked objects:
		On entry : 
		On exit  : 
		Unchanged: 
 Data sizes:     COMRAM   BANK0   BANK1   BANK2   BANK3   BANK4   BANK5   BANK6   BANK7   BANK8   BANK9  BANK10  BANK11  BANK12
      Params:         0       0       0       0       0       0       0       0       0       0       0       0       0       0
      Locals:         0     121       0       0       0       0       0       0       0       0       0       0       0       0
      Temps:          0      21       0       0       0       0       0       0       0       0       0       0       0       0
      Totals:         0     142       0       0       0       0       0       0       0       0       0       0       0       0
Total ram usage:      142 bytes
 Hardware stack levels used:    1
 Hardware stack levels required when called:    6
 This function calls:
		_IRrawToNEC
		_IsPrintableASCII
		_LCDScreenUpdate
		_Reset_Timer0
		_UseIRCode
		i1_BufferCopy
		i1_ClearLCD
		i1_LCDPrintChar
		i1_LCDPrintString
		i1_ReadIRpin
		i1_ReadUSART
		i1_SetLCDcursor
		i1_UARTchar
		i1_UARTstring
		i1_cleanBuffer
		i1_cleanBuffer16bit
 This function is called by:
		Interrupt level 1
 This function uses a non-reentrant model


 *************** function i1_cleanBuffer16bit *****************
 Defined at:
		line 89 in file "MISC.c"
 Parameters:    Size  Location     Type
  data            2    0[COMRAM] PTR unsigned int 
		 -> IRRawCode(144), 
  count           2    2[COMRAM] int 
 Auto vars:     Size  Location     Type
  cleanBuffer1    1    7[COMRAM] unsigned char 
 Return value:  Size  Location     Type
		None               void
 Registers used:
		wreg, fsr2l, fsr2h, status,2, status,0, prodl, prodh
 Tracked objects:
		On entry : 
		On exit  : 
		Unchanged: 
 Data sizes:     COMRAM   BANK0   BANK1   BANK2   BANK3   BANK4   BANK5   BANK6   BANK7   BANK8   BANK9  BANK10  BANK11  BANK12
      Params:         4       0       0       0       0       0       0       0       0       0       0       0       0       0
      Locals:         1       0       0       0       0       0       0       0       0       0       0       0       0       0
      Temps:          3       0       0       0       0       0       0       0       0       0       0       0       0       0
      Totals:         8       0       0       0       0       0       0       0       0       0       0       0       0       0
Total ram usage:        8 bytes
 Hardware stack levels used:    1
 Hardware stack levels required when called:    1
 This function calls:
		Nothing
 This function is called by:
		_low_isr
 This function uses a non-reentrant model


 *************** function i1_ReadUSART *****************
 Defined at:
		line 250 in file "UART.c"
 Parameters:    Size  Location     Type
		None
 Auto vars:     Size  Location     Type
  ReadUSART       1    0[COMRAM] unsigned char 
 Return value:  Size  Location     Type
                  1    wreg      unsigned char 
 Registers used:
		wreg, status,2, status,0
 Tracked objects:
		On entry : 
		On exit  : 
		Unchanged: 
 Data sizes:     COMRAM   BANK0   BANK1   BANK2   BANK3   BANK4   BANK5   BANK6   BANK7   BANK8   BANK9  BANK10  BANK11  BANK12
      Params:         0       0       0       0       0       0       0       0       0       0       0       0       0       0
      Locals:         1       0       0       0       0       0       0       0       0       0       0       0       0       0
      Temps:          0       0       0       0       0       0       0       0       0       0       0       0       0       0
      Totals:         1       0       0       0       0       0       0       0       0       0       0       0       0       0
Total ram usage:        1 bytes
 Hardware stack levels used:    1
 Hardware stack levels required when called:    1
 This function calls:
		Nothing
 This function is called by:
		_low_isr
 This function uses a non-reentrant model


 *************** function i1_ReadIRpin *****************
 Defined at:
		line 95 in file "IR.c"
 Parameters:    Size  Location     Type
		None
 Auto vars:     Size  Location     Type
		None
 Return value:  Size  Location     Type
                  1    wreg      unsigned char 
 Registers used:
		wreg
 Tracked objects:
		On entry : 
		On exit  : 
		Unchanged: 
 Data sizes:     COMRAM   BANK0   BANK1   BANK2   BANK3   BANK4   BANK5   BANK6   BANK7   BANK8   BANK9  BANK10  BANK11  BANK12
      Params:         0       0       0       0       0       0       0       0       0       0       0       0       0       0
      Locals:         0       0       0       0       0       0       0       0       0       0       0       0       0       0
      Temps:          0       0       0       0       0       0       0       0       0       0       0       0       0       0
      Totals:         0       0       0       0       0       0       0       0       0       0       0       0       0       0
Total ram usage:        0 bytes
 Hardware stack levels used:    1
 Hardware stack levels required when called:    1
 This function calls:
		Nothing
 This function is called by:
		_low_isr
 This function uses a non-reentrant model


 *************** function i1_BufferCopy *****************
 Defined at:
		line 103 in file "MISC.c"
 Parameters:    Size  Location     Type
  from            2    8[COMRAM] PTR unsigned char 
		 -> STR_298(6), STR_297(5), STR_296(5), STR_295(10), 
		 -> STR_294(16), STR_293(11), STR_292(12), STR_291(9), 
		 -> STR_290(14), STR_270(6), STR_269(9), STR_268(14), 
		 -> STR_252(4), STR_251(5), STR_250(8), STR_249(10), 
		 -> STR_248(9), STR_217(2), STR_216(10), STR_215(9), 
		 -> STR_196(10), STR_195(10), STR_194(13), STR_179(10), 
		 -> STR_178(10), STR_177(17), STR_157(6), STR_156(6), 
		 -> STR_155(9), STR_154(10), STR_129(7), STR_128(4), 
		 -> STR_127(6), STR_126(9), STR_125(13), STR_94(4), 
		 -> STR_93(6), STR_92(9), STR_91(14), STR_69(5), 
		 -> STR_68(5), STR_67(9), STR_66(9), StringAddEqual@temp(100), 
		 -> RemoveSpaces@That(100), low_isr@TEMP_Rxdata(100), 
  to              2   10[COMRAM] PTR unsigned char 
		 -> Scroll_10(16), Scroll_9(16), Scroll_8(16), Scroll_7(16), 
		 -> Scroll_6(16), Scroll_5(16), Scroll_4(16), Scroll_3(16), 
		 -> Scroll_2(16), Scroll_1(16), Rxdata(100), 
  count           1   12[COMRAM] unsigned char 
  shift           1   13[COMRAM] unsigned char 
 Auto vars:     Size  Location     Type
  BufferCopy      1   14[COMRAM] unsigned char 
 Return value:  Size  Location     Type
		None               void
 Registers used:
		wreg, fsr0l, fsr0h, fsr2l, fsr2h, status,2, status,0, tblptrl, tblptrh, tblptru, prodl, prodh, cstack
 Tracked objects:
		On entry : 
		On exit  : 
		Unchanged: 
 Data sizes:     COMRAM   BANK0   BANK1   BANK2   BANK3   BANK4   BANK5   BANK6   BANK7   BANK8   BANK9  BANK10  BANK11  BANK12
      Params:         6       0       0       0       0       0       0       0       0       0       0       0       0       0
      Locals:         1       0       0       0       0       0       0       0       0       0       0       0       0       0
      Temps:          0       0       0       0       0       0       0       0       0       0       0       0       0       0
      Totals:         7       0       0       0       0       0       0       0       0       0       0       0       0       0
Total ram usage:        7 bytes
 Hardware stack levels used:    1
 Hardware stack levels required when called:    2
 This function calls:
		i1_cleanBuffer
 This function is called by:
		_low_isr
 This function uses a non-reentrant model


 *************** function _UseIRCode *****************
 Defined at:
		line 271 in file "IR.c"
 Parameters:    Size  Location     Type
  Code            2   70[COMRAM] PTR unsigned char 
		 -> IR_New_Code(1), 
  NEC             4   72[COMRAM] unsigned long 
 Auto vars:     Size  Location     Type
  buf           100    0        unsigned char [100]
  i               1   77[COMRAM] unsigned char 
 Return value:  Size  Location     Type
		None               void
 Registers used:
		wreg, fsr0l, fsr0h, fsr2l, fsr2h, status,2, status,0, tblptrl, tblptrh, tblptru, cstack
 Tracked objects:
		On entry : 
		On exit  : 
		Unchanged: 
 Data sizes:     COMRAM   BANK0   BANK1   BANK2   BANK3   BANK4   BANK5   BANK6   BANK7   BANK8   BANK9  BANK10  BANK11  BANK12
      Params:         6       0       0       0       0       0       0       0       0       0       0       0       0       0
      Locals:         1       0       0       0       0       0       0       0       0       0       0       0       0       0
      Temps:          1       0       0       0       0       0       0       0       0       0       0       0       0       0
      Totals:         8       0       0       0       0       0       0       0       0       0       0       0       0       0
Total ram usage:        8 bytes
 Hardware stack levels used:    1
 Hardware stack levels required when called:    5
 This function calls:
		_ReadButton1
		i1_SetEEPROM
		i1_UARTstring
		i1_delayUS
 This function is called by:
		_low_isr
 This function uses a non-reentrant model


 *************** function i1_UARTstring *****************
 Defined at:
		line 233 in file "UART.c"
 Parameters:    Size  Location     Type
  data            2   11[COMRAM] PTR const unsigned char 
		 -> STR_324(44), STR_320(26), STR_319(3), STR_317(18), 
		 -> STR_315(18), STR_311(20), STR_288(24), STR_285(3), 
		 -> STR_283(15), STR_282(22), STR_281(50), STR_280(8), 
		 -> STR_279(6), STR_278(6), STR_277(11), STR_276(17), 
		 -> STR_275(12), STR_274(13), STR_273(10), STR_272(12), 
		 -> STR_267(28), STR_266(68), STR_265(9), STR_264(11), 
		 -> STR_263(23), STR_261(19), STR_259(20), STR_256(20), 
		 -> STR_247(21), STR_246(61), STR_245(69), STR_244(7), 
		 -> STR_243(7), STR_242(10), STR_241(11), STR_240(29), 
		 -> STR_239(13), STR_238(33), STR_237(25), STR_236(28), 
		 -> STR_235(3), STR_234(26), STR_233(2), STR_232(34), 
		 -> STR_231(37), STR_228(24), STR_224(3), STR_214(13), 
		 -> STR_213(73), STR_212(5), STR_211(12), STR_210(17), 
		 -> STR_204(28), STR_202(30), STR_200(33), STR_193(42), 
		 -> STR_192(62), STR_191(26), STR_187(43), STR_185(48), 
		 -> STR_183(27), STR_176(42), STR_175(66), STR_174(25), 
		 -> STR_172(49), Command@buf(200), STR_168(33), STR_166(38), 
		 -> STR_164(27), STR_163(28), STR_153(37), STR_152(68), 
		 -> STR_151(18), STR_150(15), STR_149(11), STR_148(28), 
		 -> STR_146(18), STR_144(32), STR_140(31), STR_136(38), 
		 -> STR_123(24), STR_122(68), STR_121(10), STR_120(6), 
		 -> STR_119(8), STR_118(11), STR_117(21), STR_115(16), 
		 -> STR_113(19), STR_110(18), STR_107(16), STR_104(15), 
		 -> STR_101(22), STR_89(27), STR_88(68), STR_87(7), 
		 -> STR_86(8), STR_85(11), STR_84(24), STR_82(19), 
		 -> STR_80(19), STR_77(18), STR_74(25), STR_65(17), 
		 -> STR_64(68), STR_63(8), STR_62(7), STR_61(11), 
		 -> STR_60(17), STR_58(12), STR_56(9), STR_53(8), 
		 -> STR_50(13), STR_47(9), STR_44(8), STR_41(13), 
		 -> STR_36(4), STR_35(22), STR_29(22), STR_28(3), 
		 -> SetBaud@buf(50), STR_22(4), STR_21(29), STR_11(12), 
		 -> STR_8(54), STR_7(3), Version(20), STR_6(19), 
		 -> STR_5(38), low_isr@TEMP_Rxdata(100), STR_4(2), STR_3(2), 
		 -> STR_2(2), STR_1(2), 
 Auto vars:     Size  Location     Type
		None
 Return value:  Size  Location     Type
		None               void
 Registers used:
		wreg, fsr0l, fsr0h, status,2, status,0, tblptrl, tblptrh, tblptru, cstack
 Tracked objects:
		On entry : 
		On exit  : 
		Unchanged: 
 Data sizes:     COMRAM   BANK0   BANK1   BANK2   BANK3   BANK4   BANK5   BANK6   BANK7   BANK8   BANK9  BANK10  BANK11  BANK12
      Params:         2       0       0       0       0       0       0       0       0       0       0       0       0       0
      Locals:         0       0       0       0       0       0       0       0       0       0       0       0       0       0
      Temps:          2       0       0       0       0       0       0       0       0       0       0       0       0       0
      Totals:         4       0       0       0       0       0       0       0       0       0       0       0       0       0
Total ram usage:        4 bytes
 Hardware stack levels used:    1
 Hardware stack levels required when called:    3
 This function calls:
		i1_UARTchar
 This function is called by:
		_low_isr
		_UseIRCode
 This function uses a non-reentrant model


 *************** function i1_UARTchar *****************
 Defined at:
		line 194 in file "UART.c"
 Parameters:    Size  Location     Type
  data            1    wreg     unsigned char 
  NinethBit_ov    1    7[COMRAM] unsigned char 
  NinethBit_ov    1    8[COMRAM] unsigned char 
 Auto vars:     Size  Location     Type
  data            1   10[COMRAM] unsigned char 
 Return value:  Size  Location     Type
		None               void
 Registers used:
		wreg, status,2, status,0, cstack
 Tracked objects:
		On entry : 
		On exit  : 
		Unchanged: 
 Data sizes:     COMRAM   BANK0   BANK1   BANK2   BANK3   BANK4   BANK5   BANK6   BANK7   BANK8   BANK9  BANK10  BANK11  BANK12
      Params:         2       0       0       0       0       0       0       0       0       0       0       0       0       0
      Locals:         1       0       0       0       0       0       0       0       0       0       0       0       0       0
      Temps:          1       0       0       0       0       0       0       0       0       0       0       0       0       0
      Totals:         4       0       0       0       0       0       0       0       0       0       0       0       0       0
Total ram usage:        4 bytes
 Hardware stack levels used:    1
 Hardware stack levels required when called:    2
 This function calls:
		i1_CheckSum_byte
 This function is called by:
		_low_isr
		i1_UARTstring
 This function uses a non-reentrant model


 *************** function i1_CheckSum_byte *****************
 Defined at:
		line 359 in file "MISC.c"
 Parameters:    Size  Location     Type
  This            2    0[COMRAM] unsigned int 
  Odd_Even        1    2[COMRAM] unsigned char 
 Auto vars:     Size  Location     Type
  CheckSum_byt    2    3[COMRAM] unsigned int 
  CheckSum_byt    1    6[COMRAM] unsigned char 
  CheckSum_byt    1    5[COMRAM] unsigned char 
 Return value:  Size  Location     Type
                  1    wreg      unsigned char 
 Registers used:
		wreg, status,2, status,0
 Tracked objects:
		On entry : 
		On exit  : 
		Unchanged: 
 Data sizes:     COMRAM   BANK0   BANK1   BANK2   BANK3   BANK4   BANK5   BANK6   BANK7   BANK8   BANK9  BANK10  BANK11  BANK12
      Params:         3       0       0       0       0       0       0       0       0       0       0       0       0       0
      Locals:         4       0       0       0       0       0       0       0       0       0       0       0       0       0
      Temps:          0       0       0       0       0       0       0       0       0       0       0       0       0       0
      Totals:         7       0       0       0       0       0       0       0       0       0       0       0       0       0
Total ram usage:        7 bytes
 Hardware stack levels used:    1
 Hardware stack levels required when called:    1
 This function calls:
		Nothing
 This function is called by:
		i1_UARTchar
 This function uses a non-reentrant model


 *************** function i1_SetEEPROM *****************
 Defined at:
		line 225 in file "EEPROM.c"
 Parameters:    Size  Location     Type
  Temp            9   53[COMRAM] struct EEdata
  burn            4   62[COMRAM] unsigned long 
 Auto vars:     Size  Location     Type
  SetEEPROM       4   66[COMRAM] unsigned long 
 Return value:  Size  Location     Type
                  4   53[COMRAM] unsigned long 
 Registers used:
		wreg, status,2, status,0, cstack
 Tracked objects:
		On entry : 
		On exit  : 
		Unchanged: 
 Data sizes:     COMRAM   BANK0   BANK1   BANK2   BANK3   BANK4   BANK5   BANK6   BANK7   BANK8   BANK9  BANK10  BANK11  BANK12
      Params:        13       0       0       0       0       0       0       0       0       0       0       0       0       0
      Locals:         4       0       0       0       0       0       0       0       0       0       0       0       0       0
      Temps:          0       0       0       0       0       0       0       0       0       0       0       0       0       0
      Totals:        17       0       0       0       0       0       0       0       0       0       0       0       0       0
Total ram usage:       17 bytes
 Hardware stack levels used:    1
 Hardware stack levels required when called:    4
 This function calls:
		i1_SetMemoryBaud
		i1_SetMemoryLong
		i1_SetMemoryParity
 This function is called by:
		_UseIRCode
 This function uses a non-reentrant model


 *************** function i1_SetMemoryParity *****************
 Defined at:
		line 190 in file "EEPROM.c"
 Parameters:    Size  Location     Type
  Parity          1    wreg     unsigned char 
 Auto vars:     Size  Location     Type
  Parity          1    5[COMRAM] unsigned char 
  SetMemoryPar    1    4[COMRAM] unsigned char 
 Return value:  Size  Location     Type
                  1    wreg      unsigned char 
 Registers used:
		wreg, status,2, status,0, cstack
 Tracked objects:
		On entry : 
		On exit  : 
		Unchanged: 
 Data sizes:     COMRAM   BANK0   BANK1   BANK2   BANK3   BANK4   BANK5   BANK6   BANK7   BANK8   BANK9  BANK10  BANK11  BANK12
      Params:         0       0       0       0       0       0       0       0       0       0       0       0       0       0
      Locals:         2       0       0       0       0       0       0       0       0       0       0       0       0       0
      Temps:          0       0       0       0       0       0       0       0       0       0       0       0       0       0
      Totals:         2       0       0       0       0       0       0       0       0       0       0       0       0       0
Total ram usage:        2 bytes
 Hardware stack levels used:    1
 Hardware stack levels required when called:    3
 This function calls:
		i1_GetMemoryParity
		i1_WriteEEPROM_1Byte
 This function is called by:
		i1_SetEEPROM
 This function uses a non-reentrant model


 *************** function i1_GetMemoryParity *****************
 Defined at:
		line 176 in file "EEPROM.c"
 Parameters:    Size  Location     Type
		None
 Auto vars:     Size  Location     Type
  GetMemoryPar    1    3[COMRAM] unsigned char 
 Return value:  Size  Location     Type
                  1    wreg      unsigned char 
 Registers used:
		wreg, status,2, status,0, cstack
 Tracked objects:
		On entry : 
		On exit  : 
		Unchanged: 
 Data sizes:     COMRAM   BANK0   BANK1   BANK2   BANK3   BANK4   BANK5   BANK6   BANK7   BANK8   BANK9  BANK10  BANK11  BANK12
      Params:         0       0       0       0       0       0       0       0       0       0       0       0       0       0
      Locals:         1       0       0       0       0       0       0       0       0       0       0       0       0       0
      Temps:          0       0       0       0       0       0       0       0       0       0       0       0       0       0
      Totals:         1       0       0       0       0       0       0       0       0       0       0       0       0       0
Total ram usage:        1 bytes
 Hardware stack levels used:    1
 Hardware stack levels required when called:    2
 This function calls:
		i1_ReadEEPROM_1Byte
 This function is called by:
		i1_SetMemoryParity
 This function uses a non-reentrant model


 *************** function i1_SetMemoryLong *****************
 Defined at:
		line 300 in file "EEPROM.c"
 Parameters:    Size  Location     Type
  Data            4   36[COMRAM] unsigned long 
  AddressFirst    1   40[COMRAM] unsigned char 
 Auto vars:     Size  Location     Type
  SetMemoryLon    4   45[COMRAM] unsigned long 
  SetMemoryLon    1   52[COMRAM] unsigned char 
  SetMemoryLon    1   51[COMRAM] unsigned char 
  SetMemoryLon    1   50[COMRAM] unsigned char 
  SetMemoryLon    1   49[COMRAM] unsigned char 
 Return value:  Size  Location     Type
                  1    wreg      unsigned char 
 Registers used:
		wreg, status,2, status,0, cstack
 Tracked objects:
		On entry : 
		On exit  : 
		Unchanged: 
 Data sizes:     COMRAM   BANK0   BANK1   BANK2   BANK3   BANK4   BANK5   BANK6   BANK7   BANK8   BANK9  BANK10  BANK11  BANK12
      Params:         5       0       0       0       0       0       0       0       0       0       0       0       0       0
      Locals:         8       0       0       0       0       0       0       0       0       0       0       0       0       0
      Temps:          4       0       0       0       0       0       0       0       0       0       0       0       0       0
      Totals:        17       0       0       0       0       0       0       0       0       0       0       0       0       0
Total ram usage:       17 bytes
 Hardware stack levels used:    1
 Hardware stack levels required when called:    3
 This function calls:
		i1_GetMemoryLong
		i1_WriteEEPROM_1Byte
 This function is called by:
		i1_SetEEPROM
 This function uses a non-reentrant model


 *************** function i1_GetMemoryLong *****************
 Defined at:
		line 277 in file "EEPROM.c"
 Parameters:    Size  Location     Type
  AddressFirst    1    wreg     unsigned char 
 Auto vars:     Size  Location     Type
  AddressFirst    1   35[COMRAM] unsigned char 
  GetMemoryLon    4   27[COMRAM] unsigned long 
  GetMemoryLon    1   34[COMRAM] unsigned char 
  GetMemoryLon    1   33[COMRAM] unsigned char 
  GetMemoryLon    1   32[COMRAM] unsigned char 
  GetMemoryLon    1   31[COMRAM] unsigned char 
 Return value:  Size  Location     Type
                  4    3[COMRAM] unsigned long 
 Registers used:
		wreg, status,2, status,0, cstack
 Tracked objects:
		On entry : 
		On exit  : 
		Unchanged: 
 Data sizes:     COMRAM   BANK0   BANK1   BANK2   BANK3   BANK4   BANK5   BANK6   BANK7   BANK8   BANK9  BANK10  BANK11  BANK12
      Params:         4       0       0       0       0       0       0       0       0       0       0       0       0       0
      Locals:         9       0       0       0       0       0       0       0       0       0       0       0       0       0
      Temps:         20       0       0       0       0       0       0       0       0       0       0       0       0       0
      Totals:        33       0       0       0       0       0       0       0       0       0       0       0       0       0
Total ram usage:       33 bytes
 Hardware stack levels used:    1
 Hardware stack levels required when called:    2
 This function calls:
		i1_ReadEEPROM_1Byte
 This function is called by:
		i1_SetMemoryLong
 This function uses a non-reentrant model


 *************** function i1_SetMemoryBaud *****************
 Defined at:
		line 142 in file "EEPROM.c"
 Parameters:    Size  Location     Type
  Baud            4   35[COMRAM] unsigned long 
 Auto vars:     Size  Location     Type
  SetMemoryBau    4   43[COMRAM] unsigned long 
  SetMemoryBau    1   50[COMRAM] unsigned char 
  SetMemoryBau    1   49[COMRAM] unsigned char 
  SetMemoryBau    1   48[COMRAM] unsigned char 
  SetMemoryBau    1   47[COMRAM] unsigned char 
 Return value:  Size  Location     Type
                  1    wreg      unsigned char 
 Registers used:
		wreg, status,2, status,0, cstack
 Tracked objects:
		On entry : 
		On exit  : 
		Unchanged: 
 Data sizes:     COMRAM   BANK0   BANK1   BANK2   BANK3   BANK4   BANK5   BANK6   BANK7   BANK8   BANK9  BANK10  BANK11  BANK12
      Params:         4       0       0       0       0       0       0       0       0       0       0       0       0       0
      Locals:         8       0       0       0       0       0       0       0       0       0       0       0       0       0
      Temps:          4       0       0       0       0       0       0       0       0       0       0       0       0       0
      Totals:        16       0       0       0       0       0       0       0       0       0       0       0       0       0
Total ram usage:       16 bytes
 Hardware stack levels used:    1
 Hardware stack levels required when called:    3
 This function calls:
		i1_GetMemoryBaud
		i1_WriteEEPROM_1Byte
 This function is called by:
		i1_SetEEPROM
 This function uses a non-reentrant model


 *************** function i1_WriteEEPROM_1Byte *****************
 Defined at:
		line 94 in file "EEPROM.c"
 Parameters:    Size  Location     Type
  address         2    0[COMRAM] unsigned int 
  data            1    2[COMRAM] unsigned char 
 Auto vars:     Size  Location     Type
  WriteEEPROM_    1    3[COMRAM] unsigned char 
 Return value:  Size  Location     Type
		None               void
 Registers used:
		wreg, status,2, status,0, cstack
 Tracked objects:
		On entry : 
		On exit  : 
		Unchanged: 
 Data sizes:     COMRAM   BANK0   BANK1   BANK2   BANK3   BANK4   BANK5   BANK6   BANK7   BANK8   BANK9  BANK10  BANK11  BANK12
      Params:         3       0       0       0       0       0       0       0       0       0       0       0       0       0
      Locals:         1       0       0       0       0       0       0       0       0       0       0       0       0       0
      Temps:          0       0       0       0       0       0       0       0       0       0       0       0       0       0
      Totals:         4       0       0       0       0       0       0       0       0       0       0       0       0       0
Total ram usage:        4 bytes
 Hardware stack levels used:    1
 Hardware stack levels required when called:    2
 This function calls:
		i1_EEPROM_UNLOCK
 This function is called by:
		i1_SetMemoryBaud
		i1_SetMemoryParity
		i1_SetMemoryLong
 This function uses a non-reentrant model


 *************** function i1_EEPROM_UNLOCK *****************
 Defined at:
		line 79 in file "EEPROM.c"
 Parameters:    Size  Location     Type
		None
 Auto vars:     Size  Location     Type
		None
 Return value:  Size  Location     Type
		None               void
 Registers used:
		wreg, status,2
 Tracked objects:
		On entry : 
		On exit  : 
		Unchanged: 
 Data sizes:     COMRAM   BANK0   BANK1   BANK2   BANK3   BANK4   BANK5   BANK6   BANK7   BANK8   BANK9  BANK10  BANK11  BANK12
      Params:         0       0       0       0       0       0       0       0       0       0       0       0       0       0
      Locals:         0       0       0       0       0       0       0       0       0       0       0       0       0       0
      Temps:          0       0       0       0       0       0       0       0       0       0       0       0       0       0
      Totals:         0       0       0       0       0       0       0       0       0       0       0       0       0       0
Total ram usage:        0 bytes
 Hardware stack levels used:    1
 Hardware stack levels required when called:    1
 This function calls:
		Nothing
 This function is called by:
		i1_WriteEEPROM_1Byte
 This function uses a non-reentrant model


 *************** function i1_GetMemoryBaud *****************
 Defined at:
		line 119 in file "EEPROM.c"
 Parameters:    Size  Location     Type
		None
 Auto vars:     Size  Location     Type
  GetMemoryBau    4   27[COMRAM] unsigned long 
  GetMemoryBau    1   34[COMRAM] unsigned char 
  GetMemoryBau    1   33[COMRAM] unsigned char 
  GetMemoryBau    1   32[COMRAM] unsigned char 
  GetMemoryBau    1   31[COMRAM] unsigned char 
 Return value:  Size  Location     Type
                  4    3[COMRAM] unsigned long 
 Registers used:
		wreg, status,2, status,0, cstack
 Tracked objects:
		On entry : 
		On exit  : 
		Unchanged: 
 Data sizes:     COMRAM   BANK0   BANK1   BANK2   BANK3   BANK4   BANK5   BANK6   BANK7   BANK8   BANK9  BANK10  BANK11  BANK12
      Params:         4       0       0       0       0       0       0       0       0       0       0       0       0       0
      Locals:         8       0       0       0       0       0       0       0       0       0       0       0       0       0
      Temps:         20       0       0       0       0       0       0       0       0       0       0       0       0       0
      Totals:        32       0       0       0       0       0       0       0       0       0       0       0       0       0
Total ram usage:       32 bytes
 Hardware stack levels used:    1
 Hardware stack levels required when called:    2
 This function calls:
		i1_ReadEEPROM_1Byte
 This function is called by:
		i1_SetMemoryBaud
 This function uses a non-reentrant model


 *************** function i1_ReadEEPROM_1Byte *****************
 Defined at:
		line 54 in file "EEPROM.c"
 Parameters:    Size  Location     Type
  address         2    0[COMRAM] unsigned int 
 Auto vars:     Size  Location     Type
  ReadEEPROM_1    1    2[COMRAM] unsigned char 
 Return value:  Size  Location     Type
                  2    0[COMRAM] unsigned int 
 Registers used:
		wreg, status,2, status,0
 Tracked objects:
		On entry : 
		On exit  : 
		Unchanged: 
 Data sizes:     COMRAM   BANK0   BANK1   BANK2   BANK3   BANK4   BANK5   BANK6   BANK7   BANK8   BANK9  BANK10  BANK11  BANK12
      Params:         2       0       0       0       0       0       0       0       0       0       0       0       0       0
      Locals:         1       0       0       0       0       0       0       0       0       0       0       0       0       0
      Temps:          0       0       0       0       0       0       0       0       0       0       0       0       0       0
      Totals:         3       0       0       0       0       0       0       0       0       0       0       0       0       0
Total ram usage:        3 bytes
 Hardware stack levels used:    1
 Hardware stack levels required when called:    1
 This function calls:
		Nothing
 This function is called by:
		i1_GetMemoryBaud
		i1_GetMemoryParity
		i1_GetMemoryLong
 This function uses a non-reentrant model


 *************** function _ReadButton1 *****************
 Defined at:
		line 64 in file "Button.c"
 Parameters:    Size  Location     Type
		None
 Auto vars:     Size  Location     Type
		None
 Return value:  Size  Location     Type
                  1    wreg      unsigned char 
 Registers used:
		wreg
 Tracked objects:
		On entry : 
		On exit  : 
		Unchanged: 
 Data sizes:     COMRAM   BANK0   BANK1   BANK2   BANK3   BANK4   BANK5   BANK6   BANK7   BANK8   BANK9  BANK10  BANK11  BANK12
      Params:         0       0       0       0       0       0       0       0       0       0       0       0       0       0
      Locals:         0       0       0       0       0       0       0       0       0       0       0       0       0       0
      Temps:          0       0       0       0       0       0       0       0       0       0       0       0       0       0
      Totals:         0       0       0       0       0       0       0       0       0       0       0       0       0       0
Total ram usage:        0 bytes
 Hardware stack levels used:    1
 Hardware stack levels required when called:    1
 This function calls:
		Nothing
 This function is called by:
		_UseIRCode
 This function uses a non-reentrant model


 *************** function _Reset_Timer0 *****************
 Defined at:
		line 103 in file "Timer.c"
 Parameters:    Size  Location     Type
		None
 Auto vars:     Size  Location     Type
		None
 Return value:  Size  Location     Type
		None               void
 Registers used:
		wreg, status,2
 Tracked objects:
		On entry : 
		On exit  : 
		Unchanged: 
 Data sizes:     COMRAM   BANK0   BANK1   BANK2   BANK3   BANK4   BANK5   BANK6   BANK7   BANK8   BANK9  BANK10  BANK11  BANK12
      Params:         0       0       0       0       0       0       0       0       0       0       0       0       0       0
      Locals:         0       0       0       0       0       0       0       0       0       0       0       0       0       0
      Temps:          0       0       0       0       0       0       0       0       0       0       0       0       0       0
      Totals:         0       0       0       0       0       0       0       0       0       0       0       0       0       0
Total ram usage:        0 bytes
 Hardware stack levels used:    1
 Hardware stack levels required when called:    1
 This function calls:
		Nothing
 This function is called by:
		_low_isr
 This function uses a non-reentrant model


 *************** function _LCDScreenUpdate *****************
 Defined at:
		line 282 in file "LCD.c"
 Parameters:    Size  Location     Type
		None
 Auto vars:     Size  Location     Type
		None
 Return value:  Size  Location     Type
		None               void
 Registers used:
		wreg, fsr0l, fsr0h, fsr2l, fsr2h, status,2, status,0, tblptrl, tblptrh, tblptru, prodl, prodh, cstack
 Tracked objects:
		On entry : 
		On exit  : 
		Unchanged: 
 Data sizes:     COMRAM   BANK0   BANK1   BANK2   BANK3   BANK4   BANK5   BANK6   BANK7   BANK8   BANK9  BANK10  BANK11  BANK12
      Params:         0       0       0       0       0       0       0       0       0       0       0       0       0       0
      Locals:         0       0       0       0       0       0       0       0       0       0       0       0       0       0
      Temps:          0       0       0       0       0       0       0       0       0       0       0       0       0       0
      Totals:         0       0       0       0       0       0       0       0       0       0       0       0       0       0
Total ram usage:        0 bytes
 Hardware stack levels used:    1
 Hardware stack levels required when called:    5
 This function calls:
		i1_ClearLCD
		i1_LCDPrintChar
		i1_LCDPrintString
		i1_SetLCDcursor
		i1_Stop_Timer1
		i1_cleanBuffer
 This function is called by:
		_low_isr
 This function uses a non-reentrant model


 *************** function i1_cleanBuffer *****************
 Defined at:
		line 75 in file "MISC.c"
 Parameters:    Size  Location     Type
  data            2    0[COMRAM] PTR unsigned char 
		 -> Scroll_10(16), Scroll_9(16), Scroll_8(16), Scroll_7(16), 
		 -> Scroll_6(16), Scroll_5(16), Scroll_4(16), Scroll_3(16), 
		 -> Scroll_2(16), Scroll_1(16), StringAddEqual@temp(100), RemoveSpaces@That(100), 
		 -> Rxdata(100), low_isr@TEMP_Rxdata(100), 
  count           2    2[COMRAM] int 
 Auto vars:     Size  Location     Type
  cleanBuffer     1    7[COMRAM] unsigned char 
 Return value:  Size  Location     Type
		None               void
 Registers used:
		wreg, fsr2l, fsr2h, status,2, status,0, prodl, prodh
 Tracked objects:
		On entry : 
		On exit  : 
		Unchanged: 
 Data sizes:     COMRAM   BANK0   BANK1   BANK2   BANK3   BANK4   BANK5   BANK6   BANK7   BANK8   BANK9  BANK10  BANK11  BANK12
      Params:         4       0       0       0       0       0       0       0       0       0       0       0       0       0
      Locals:         1       0       0       0       0       0       0       0       0       0       0       0       0       0
      Temps:          3       0       0       0       0       0       0       0       0       0       0       0       0       0
      Totals:         8       0       0       0       0       0       0       0       0       0       0       0       0       0
Total ram usage:        8 bytes
 Hardware stack levels used:    1
 Hardware stack levels required when called:    1
 This function calls:
		Nothing
 This function is called by:
		_low_isr
		_LCDScreenUpdate
		i1_BufferCopy
 This function uses a non-reentrant model


 *************** function i1_Stop_Timer1 *****************
 Defined at:
		line 137 in file "Timer.c"
 Parameters:    Size  Location     Type
		None
 Auto vars:     Size  Location     Type
		None
 Return value:  Size  Location     Type
		None               void
 Registers used:
		None
 Tracked objects:
		On entry : 
		On exit  : 
		Unchanged: 
 Data sizes:     COMRAM   BANK0   BANK1   BANK2   BANK3   BANK4   BANK5   BANK6   BANK7   BANK8   BANK9  BANK10  BANK11  BANK12
      Params:         0       0       0       0       0       0       0       0       0       0       0       0       0       0
      Locals:         0       0       0       0       0       0       0       0       0       0       0       0       0       0
      Temps:          0       0       0       0       0       0       0       0       0       0       0       0       0       0
      Totals:         0       0       0       0       0       0       0       0       0       0       0       0       0       0
Total ram usage:        0 bytes
 Hardware stack levels used:    1
 Hardware stack levels required when called:    1
 This function calls:
		Nothing
 This function is called by:
		_LCDScreenUpdate
 This function uses a non-reentrant model


 *************** function i1_SetLCDcursor *****************
 Defined at:
		line 195 in file "LCD.c"
 Parameters:    Size  Location     Type
  Row             1    wreg     unsigned char 
  Col             1   14[COMRAM] unsigned char 
 Auto vars:     Size  Location     Type
  Row             1   15[COMRAM] unsigned char 
  SetLCDcursor    1   16[COMRAM] unsigned char 
 Return value:  Size  Location     Type
		None               void
 Registers used:
		wreg, status,2, status,0, cstack
 Tracked objects:
		On entry : 
		On exit  : 
		Unchanged: 
 Data sizes:     COMRAM   BANK0   BANK1   BANK2   BANK3   BANK4   BANK5   BANK6   BANK7   BANK8   BANK9  BANK10  BANK11  BANK12
      Params:         1       0       0       0       0       0       0       0       0       0       0       0       0       0
      Locals:         2       0       0       0       0       0       0       0       0       0       0       0       0       0
      Temps:          0       0       0       0       0       0       0       0       0       0       0       0       0       0
      Totals:         3       0       0       0       0       0       0       0       0       0       0       0       0       0
Total ram usage:        3 bytes
 Hardware stack levels used:    1
 Hardware stack levels required when called:    4
 This function calls:
		i1_SendLCDbyte
 This function is called by:
		_low_isr
		_LCDScreenUpdate
 This function uses a non-reentrant model


 *************** function i1_LCDPrintString *****************
 Defined at:
		line 236 in file "LCD.c"
 Parameters:    Size  Location     Type
  Text            2   14[COMRAM] PTR const unsigned char 
		 -> Scroll_10(16), Scroll_9(16), Scroll_8(16), Scroll_7(16), 
		 -> Scroll_6(16), Scroll_5(16), Scroll_4(16), Scroll_3(16), 
		 -> Scroll_2(16), Scroll_1(16), STR_318(16), STR_316(16), 
		 -> STR_289(17), STR_284(10), STR_262(16), STR_260(16), 
		 -> STR_257(15), STR_229(17), STR_225(17), STR_205(16), 
		 -> STR_203(16), STR_201(13), STR_188(14), STR_186(16), 
		 -> STR_184(15), STR_173(16), Command@buf(200), STR_169(14), 
		 -> STR_167(16), STR_165(15), STR_147(13), STR_145(15), 
		 -> STR_141(14), STR_137(16), STR_124(16), STR_116(16), 
		 -> STR_114(16), STR_111(15), STR_108(15), STR_105(14), 
		 -> STR_102(16), STR_90(16), STR_83(16), STR_81(15), 
		 -> STR_78(14), STR_75(16), STR_59(12), STR_57(9), 
		 -> STR_54(8), STR_51(13), STR_48(9), STR_45(8), 
		 -> STR_42(13), STR_20(10), STR_19(17), STR_18(16), 
		 -> STR_17(15), STR_16(14), STR_15(13), STR_14(12), 
		 -> STR_13(11), STR_12(10), STR_10(9), STR_9(14), 
		 -> low_isr@LCD_TEMP(16), 
 Auto vars:     Size  Location     Type
  LCDPrintStri    2   16[COMRAM] PTR unsigned char 
		 -> Scroll_10(16), Scroll_9(16), Scroll_8(16), Scroll_7(16), 
		 -> Scroll_6(16), Scroll_5(16), Scroll_4(16), Scroll_3(16), 
		 -> Scroll_2(16), Scroll_1(16), STR_318(16), STR_316(16), 
		 -> STR_289(17), STR_284(10), STR_262(16), STR_260(16), 
		 -> STR_257(15), STR_229(17), STR_225(17), STR_205(16), 
		 -> STR_203(16), STR_201(13), STR_188(14), STR_186(16), 
		 -> STR_184(15), STR_173(16), Command@buf(200), STR_169(14), 
		 -> STR_167(16), STR_165(15), STR_147(13), STR_145(15), 
		 -> STR_141(14), STR_137(16), STR_124(16), STR_116(16), 
		 -> STR_114(16), STR_111(15), STR_108(15), STR_105(14), 
		 -> STR_102(16), STR_90(16), STR_83(16), STR_81(15), 
		 -> STR_78(14), STR_75(16), STR_59(12), STR_57(9), 
		 -> STR_54(8), STR_51(13), STR_48(9), STR_45(8), 
		 -> STR_42(13), STR_20(10), STR_19(17), STR_18(16), 
		 -> STR_17(15), STR_16(14), STR_15(13), STR_14(12), 
		 -> STR_13(11), STR_12(10), STR_10(9), STR_9(14), 
		 -> low_isr@LCD_TEMP(16), 
 Return value:  Size  Location     Type
		None               void
 Registers used:
		wreg, fsr0l, fsr0h, status,2, status,0, tblptrl, tblptrh, tblptru, cstack
 Tracked objects:
		On entry : 
		On exit  : 
		Unchanged: 
 Data sizes:     COMRAM   BANK0   BANK1   BANK2   BANK3   BANK4   BANK5   BANK6   BANK7   BANK8   BANK9  BANK10  BANK11  BANK12
      Params:         2       0       0       0       0       0       0       0       0       0       0       0       0       0
      Locals:         2       0       0       0       0       0       0       0       0       0       0       0       0       0
      Temps:          0       0       0       0       0       0       0       0       0       0       0       0       0       0
      Totals:         4       0       0       0       0       0       0       0       0       0       0       0       0       0
Total ram usage:        4 bytes
 Hardware stack levels used:    1
 Hardware stack levels required when called:    4
 This function calls:
		i1_SendLCDbyte
 This function is called by:
		_low_isr
		_LCDScreenUpdate
 This function uses a non-reentrant model


 *************** function i1_LCDPrintChar *****************
 Defined at:
		line 271 in file "LCD.c"
 Parameters:    Size  Location     Type
  character       1    wreg     unsigned char 
 Auto vars:     Size  Location     Type
  character       1   14[COMRAM] unsigned char 
 Return value:  Size  Location     Type
		None               void
 Registers used:
		wreg, status,2, status,0, cstack
 Tracked objects:
		On entry : 
		On exit  : 
		Unchanged: 
 Data sizes:     COMRAM   BANK0   BANK1   BANK2   BANK3   BANK4   BANK5   BANK6   BANK7   BANK8   BANK9  BANK10  BANK11  BANK12
      Params:         0       0       0       0       0       0       0       0       0       0       0       0       0       0
      Locals:         1       0       0       0       0       0       0       0       0       0       0       0       0       0
      Temps:          0       0       0       0       0       0       0       0       0       0       0       0       0       0
      Totals:         1       0       0       0       0       0       0       0       0       0       0       0       0       0
Total ram usage:        1 bytes
 Hardware stack levels used:    1
 Hardware stack levels required when called:    4
 This function calls:
		i1_SendLCDbyte
 This function is called by:
		_low_isr
		_LCDScreenUpdate
 This function uses a non-reentrant model


 *************** function i1_ClearLCD *****************
 Defined at:
		line 222 in file "LCD.c"
 Parameters:    Size  Location     Type
		None
 Auto vars:     Size  Location     Type
		None
 Return value:  Size  Location     Type
		None               void
 Registers used:
		wreg, status,2, status,0, cstack
 Tracked objects:
		On entry : 
		On exit  : 
		Unchanged: 
 Data sizes:     COMRAM   BANK0   BANK1   BANK2   BANK3   BANK4   BANK5   BANK6   BANK7   BANK8   BANK9  BANK10  BANK11  BANK12
      Params:         0       0       0       0       0       0       0       0       0       0       0       0       0       0
      Locals:         0       0       0       0       0       0       0       0       0       0       0       0       0       0
      Temps:          0       0       0       0       0       0       0       0       0       0       0       0       0       0
      Totals:         0       0       0       0       0       0       0       0       0       0       0       0       0       0
Total ram usage:        0 bytes
 Hardware stack levels used:    1
 Hardware stack levels required when called:    4
 This function calls:
		i1_SendLCDbyte
 This function is called by:
		_low_isr
		_LCDScreenUpdate
 This function uses a non-reentrant model


 *************** function i1_SendLCDbyte *****************
 Defined at:
		line 109 in file "LCD.c"
 Parameters:    Size  Location     Type
  data            1    wreg     unsigned char 
  isCommand       1   10[COMRAM] unsigned char 
 Auto vars:     Size  Location     Type
  data            1   11[COMRAM] unsigned char 
  SendLCDbyte     1   13[COMRAM] unsigned char 
  SendLCDbyte     1   12[COMRAM] unsigned char 
 Return value:  Size  Location     Type
		None               void
 Registers used:
		wreg, status,2, status,0, cstack
 Tracked objects:
		On entry : 
		On exit  : 
		Unchanged: 
 Data sizes:     COMRAM   BANK0   BANK1   BANK2   BANK3   BANK4   BANK5   BANK6   BANK7   BANK8   BANK9  BANK10  BANK11  BANK12
      Params:         1       0       0       0       0       0       0       0       0       0       0       0       0       0
      Locals:         3       0       0       0       0       0       0       0       0       0       0       0       0       0
      Temps:          0       0       0       0       0       0       0       0       0       0       0       0       0       0
      Totals:         4       0       0       0       0       0       0       0       0       0       0       0       0       0
Total ram usage:        4 bytes
 Hardware stack levels used:    1
 Hardware stack levels required when called:    3
 This function calls:
		i1_PulseEnablePin
		i1_delayUS
 This function is called by:
		i1_SetLCDcursor
		i1_ClearLCD
		i1_LCDPrintString
		i1_LCDPrintChar
 This function uses a non-reentrant model


 *************** function i1_PulseEnablePin *****************
 Defined at:
		line 180 in file "LCD.c"
 Parameters:    Size  Location     Type
		None
 Auto vars:     Size  Location     Type
		None
 Return value:  Size  Location     Type
		None               void
 Registers used:
		wreg, status,2, status,0, cstack
 Tracked objects:
		On entry : 
		On exit  : 
		Unchanged: 
 Data sizes:     COMRAM   BANK0   BANK1   BANK2   BANK3   BANK4   BANK5   BANK6   BANK7   BANK8   BANK9  BANK10  BANK11  BANK12
      Params:         0       0       0       0       0       0       0       0       0       0       0       0       0       0
      Locals:         0       0       0       0       0       0       0       0       0       0       0       0       0       0
      Temps:          0       0       0       0       0       0       0       0       0       0       0       0       0       0
      Totals:         0       0       0       0       0       0       0       0       0       0       0       0       0       0
Total ram usage:        0 bytes
 Hardware stack levels used:    1
 Hardware stack levels required when called:    2
 This function calls:
		i1_delayUS
 This function is called by:
		i1_SendLCDbyte
 This function uses a non-reentrant model


 *************** function i1_delayUS *****************
 Defined at:
		line 57 in file "MISC.c"
 Parameters:    Size  Location     Type
  US              4    0[COMRAM] long 
 Auto vars:     Size  Location     Type
  delayUS         4    5[COMRAM] long 
  delayUS         1    9[COMRAM] unsigned char 
 Return value:  Size  Location     Type
		None               void
 Registers used:
		wreg, status,2, status,0
 Tracked objects:
		On entry : 
		On exit  : 
		Unchanged: 
 Data sizes:     COMRAM   BANK0   BANK1   BANK2   BANK3   BANK4   BANK5   BANK6   BANK7   BANK8   BANK9  BANK10  BANK11  BANK12
      Params:         4       0       0       0       0       0       0       0       0       0       0       0       0       0
      Locals:         5       0       0       0       0       0       0       0       0       0       0       0       0       0
      Temps:          1       0       0       0       0       0       0       0       0       0       0       0       0       0
      Totals:        10       0       0       0       0       0       0       0       0       0       0       0       0       0
Total ram usage:       10 bytes
 Hardware stack levels used:    1
 Hardware stack levels required when called:    1
 This function calls:
		Nothing
 This function is called by:
		_UseIRCode
		i1_SendLCDbyte
		i1_PulseEnablePin
 This function uses a non-reentrant model


 *************** function _IsPrintableASCII *****************
 Defined at:
		line 413 in file "MISC.c"
 Parameters:    Size  Location     Type
  data            1    wreg     unsigned char 
 Auto vars:     Size  Location     Type
  data            1    0[COMRAM] unsigned char 
 Return value:  Size  Location     Type
                  1    wreg      unsigned char 
 Registers used:
		wreg, status,2, status,0
 Tracked objects:
		On entry : 
		On exit  : 
		Unchanged: 
 Data sizes:     COMRAM   BANK0   BANK1   BANK2   BANK3   BANK4   BANK5   BANK6   BANK7   BANK8   BANK9  BANK10  BANK11  BANK12
      Params:         0       0       0       0       0       0       0       0       0       0       0       0       0       0
      Locals:         1       0       0       0       0       0       0       0       0       0       0       0       0       0
      Temps:          0       0       0       0       0       0       0       0       0       0       0       0       0       0
      Totals:         1       0       0       0       0       0       0       0       0       0       0       0       0       0
Total ram usage:        1 bytes
 Hardware stack levels used:    1
 Hardware stack levels required when called:    1
 This function calls:
		Nothing
 This function is called by:
		_low_isr
 This function uses a non-reentrant model


 *************** function _IRrawToNEC *****************
 Defined at:
		line 113 in file "IR.c"
 Parameters:    Size  Location     Type
  Raw             2    0[COMRAM] PTR unsigned int 
		 -> IRRawCode(144), 
  NEC             2    2[COMRAM] PTR unsigned long 
		 -> IR_NEC(4), 
  Invert          1    4[COMRAM] unsigned char 
 Auto vars:     Size  Location     Type
  NECtemp         4    7[COMRAM] unsigned long 
  StartBit        1   14[COMRAM] unsigned char 
  i               1   13[COMRAM] unsigned char 
  first           1   12[COMRAM] unsigned char 
  Pause           1   11[COMRAM] unsigned char 
 Return value:  Size  Location     Type
                  1    wreg      unsigned char 
 Registers used:
		wreg, fsr2l, fsr2h, status,2, status,0, prodl, prodh
 Tracked objects:
		On entry : 
		On exit  : 
		Unchanged: 
 Data sizes:     COMRAM   BANK0   BANK1   BANK2   BANK3   BANK4   BANK5   BANK6   BANK7   BANK8   BANK9  BANK10  BANK11  BANK12
      Params:         5       0       0       0       0       0       0       0       0       0       0       0       0       0
      Locals:         8       0       0       0       0       0       0       0       0       0       0       0       0       0
      Temps:          2       0       0       0       0       0       0       0       0       0       0       0       0       0
      Totals:        15       0       0       0       0       0       0       0       0       0       0       0       0       0
Total ram usage:       15 bytes
 Hardware stack levels used:    1
 Hardware stack levels required when called:    1
 This function calls:
		Nothing
 This function is called by:
		_low_isr
 This function uses a non-reentrant model


 *************** function _high_isr *****************
 Defined at:
		line 62 in file "interrupts.c"
 Parameters:    Size  Location     Type
		None
 Auto vars:     Size  Location     Type
		None
 Return value:  Size  Location     Type
		None               void
 Registers used:
		None
 Tracked objects:
		On entry : 
		On exit  : 
		Unchanged: 
 Data sizes:     COMRAM   BANK0   BANK1   BANK2   BANK3   BANK4   BANK5   BANK6   BANK7   BANK8   BANK9  BANK10  BANK11  BANK12
      Params:         0       0       0       0       0       0       0       0       0       0       0       0       0       0
      Locals:         0       0       0       0       0       0       0       0       0       0       0       0       0       0
      Temps:          0       0      14       0       0       0       0       0       0       0       0       0       0       0
      Totals:         0       0      14       0       0       0       0       0       0       0       0       0       0       0
Total ram usage:       14 bytes
 Hardware stack levels used:    1
 This function calls:
		Nothing
 This function is called by:
		Interrupt level 2
 This function uses a non-reentrant model



MODULE INFORMATION

Module		Function		Class		Link	Load	Size
UART.c
		_OpenUSART     		CODE           	1787E	0000	119
		_InitUART      		CODE           	151C8	0000	363
		_UARTstring    		CODE           	17006	0000	165
		_GetBaud       		CODE           	0EC4	0000	19
		_UARTstringWAIT		CODE           	178F4	0000	117
		_SetBaud       		CODE           	146F2	0000	649
		_UARTchar      		CODE           	17398	0000	141
		_baudUSART     		CODE           	0F04	0000	15
		_ReadUSART     		CODE           	0B0E	0000	53

UART.c estimated size: 1641

Timer.c
		_Reset_Timer0  		CODE           	0F5E	0000	11
		_Reset_Timer1  		CODE           	0F54	0000	11
		_Stop_Timer0   		CODE           	0F80	0000	5
		_Stop_Timer1   		CODE           	0F68	0000	9
		_init_Timer0   		CODE           	0E1A	0000	23
		_init_Timer1   		CODE           	0ED6	0000	17
		_Start_Timer0  		CODE           	0F84	0000	5
		_Start_Timer1  		CODE           	0F48	0000	13

Timer.c estimated size: 94

interrupts.c
		_high_isr      		CODE           	0008	0000	119
		_low_isr       		CODE           	0018	0000	1233

interrupts.c estimated size: 1352

C:\Program Files (x86)\Microchip\xc8\v1.34\sources\common\Umul32.c
		___lmul        		CODE           	17714	0000	123

C:\Program Files (x86)\Microchip\xc8\v1.34\sources\common\Umul32.c estimated size: 123

C:\Program Files (x86)\Microchip\xc8\v1.34\sources\common\float.c
		___ftpack      		CODE           	15AA6	0000	289

C:\Program Files (x86)\Microchip\xc8\v1.34\sources\common\float.c estimated size: 289

I2C.c
		_Multiple_I2C_R		CODE           	04EC	0000	99
		_readI2C       		CODE           	0D8A	0000	35
		_Init_I2C_Maste		CODE           	0702	0000	79
		_IdleI2C       		CODE           	0EB0	0000	21
		_I2C_Read_At_Ad		CODE           	1572C	0000	303
		_ResetI2C      		CODE           	0D42	0000	37
		_I2C_Read_Seque		CODE           	15BC6	0000	265
		_I2C_Write_At_A		CODE           	16604	0000	207
		_WriteI2C      		CODE           	17A44	0000	109
		_OpenI2C       		CODE           	0D66	0000	37

I2C.c estimated size: 1192

StringCommand.c
		_Command       		CODE           	10000	0000	9997

StringCommand.c estimated size: 9997

C:\Program Files (x86)\Microchip\xc8\v1.34\sources\common\lwmod.c
		___lwmod       		CODE           	179D8	0000	109

C:\Program Files (x86)\Microchip\xc8\v1.34\sources\common\lwmod.c estimated size: 109

C:\Program Files (x86)\Microchip\xc8\v1.34\sources\common\awmod.c
		___awmod       		CODE           	16AA2	0000	181

C:\Program Files (x86)\Microchip\xc8\v1.34\sources\common\awmod.c estimated size: 181

RF.c
		_One_Config1   		CODE           	1769A	0000	123
		_One_Config2   		CODE           	08FE	0000	65
		_Send_Config1  		CODE           	1645A	0000	219
		_Send_Config2  		CODE           	17424	0000	133
		_Zero_Config1  		CODE           	17620	0000	123
		_Zero_Config2  		CODE           	08BE	0000	65
		_f_Config1     		CODE           	175A6	0000	123

RF.c estimated size: 851

C:\Program Files (x86)\Microchip\xc8\v1.34\sources\common\llmod.c
		___llmod       		CODE           	16F62	0000	165

C:\Program Files (x86)\Microchip\xc8\v1.34\sources\common\llmod.c estimated size: 165

C:\Program Files (x86)\Microchip\xc8\v1.34\sources\common\lbtoft.c
		___lbtoft      		CODE           	0C08	0000	49

C:\Program Files (x86)\Microchip\xc8\v1.34\sources\common\lbtoft.c estimated size: 49

Button.c
		_ReadButton1   		CODE           	0F20	0000	15

Button.c estimated size: 15

C:\Program Files (x86)\Microchip\xc8\v1.34\sources\common\ftmul.c
		___ftmul       		CODE           	1505C	0000	365

C:\Program Files (x86)\Microchip\xc8\v1.34\sources\common\ftmul.c estimated size: 365

C:\Program Files (x86)\Microchip\xc8\v1.34\sources\common\isdigit.c
		_isdigit       		CODE           	0C38	0000	47

C:\Program Files (x86)\Microchip\xc8\v1.34\sources\common\isdigit.c estimated size: 47

EEPROM.c
		_SetMemoryBaud 		CODE           	1637A	0000	225
		_SetMemoryLong 		CODE           	15DCC	0000	251
		_EEPROM_UNLOCK 		CODE           	0E30	0000	23
		_GetMemoryParit		CODE           	0DAC	0000	31
		_SetMemoryParit		CODE           	0ADA	0000	53
		_ReadEEPROM_1By		CODE           	09BA	0000	61
		_SyncEEPROMandG		CODE           	0A32	0000	57
		_GetEEPROM     		CODE           	06B4	0000	79
		_WriteEEPROM_1B		CODE           	087E	0000	65
		_SetEEPROM     		CODE           	16CBA	0000	177
		_GetMemoryBaud 		CODE           	15332	0000	343
		_GetMemoryLong 		CODE           	14EEC	0000	369
		_GetMemoryChar 		CODE           	0CEE	0000	43

EEPROM.c estimated size: 1777

PWM.c
		_ContrastPWM_in		CODE           	0F3C	0000	13
		_SetFreq       		CODE           	0662	0000	83
		_SetDuty       		CODE           	16B56	0000	179
		_PWM_init      		CODE           	0BD8	0000	49
		_SetContrast   		CODE           	166D2	0000	201

PWM.c estimated size: 525

C:\Program Files (x86)\Microchip\xc8\v1.34\sources\common\lwtoft.c
		___lwtoft      		CODE           	0CC2	0000	45

C:\Program Files (x86)\Microchip\xc8\v1.34\sources\common\lwtoft.c estimated size: 45

C:\Program Files (x86)\Microchip\xc8\v1.34\sources\common\ftdiv.c
		___ftdiv       		CODE           	155DA	0000	339

C:\Program Files (x86)\Microchip\xc8\v1.34\sources\common\ftdiv.c estimated size: 339

shared
		i1_ClearLCD    		CODE           	0E72	0000	23
		i1_UARTchar    		CODE           	17806	0000	121
		i1_UARTstring  		CODE           	171E2	0000	151
		i1_SetEEPROM   		CODE           	170AA	0000	159
		i1_CheckSum_byt		CODE           	07EA	0000	77
		i1_cleanBuffer1		CODE           	17CBA	0000	67
		_Aux2ON        		MEDIUMCONST    	EDA9	0000	17
		_BedOFF        		MEDIUMCONST    	EDD9	0000	17
		_fanON         		MEDIUMCONST    	EE29	0000	17
		i1_ReadIRpin   		CODE           	0F12	0000	15
		_dpowers       		MEDIUMCONST    	ECF1	0000	41
		_SubLightON    		MEDIUMCONST    	EE09	0000	17
		_SubLightOFF   		MEDIUMCONST    	EDF9	0000	17
		_TXdataE       		MEDIUMCONST    	EE45	0000	13
		i1_EEPROM_UNLOC		CODE           	0E5C	0000	23
		_TXdataBedroomO		MEDIUMCONST    	ED5D	0000	13
		i1_Stop_Timer1 		CODE           	0F78	0000	9
		_AuxOFF        		MEDIUMCONST    	EDB9	0000	17
		i1_SetMemoryPar		CODE           	0D18	0000	43
		_TXdataBedroomC		MEDIUMCONST    	ED51	0000	13
		i1_SetMemoryBau		CODE           	16C08	0000	179
		i1_SetMemoryLon		CODE           	16928	0000	191
		_TXToiletMyBath		MEDIUMCONST    	ED45	0000	13
		i1_SetLCDcursor		CODE           	0C66	0000	47
		_BedON         		MEDIUMCONST    	EDE9	0000	17
		_TXdataLabOPENE		MEDIUMCONST    	ED8D	0000	13
		i1_ReadUSART   		CODE           	0B74	0000	51
		_TXdataLabCLOSE		MEDIUMCONST    	ED81	0000	13
		__initializatio		CODE           	16D6A	0000	167
		i1_LCDPrintStri		CODE           	17968	0000	113
		_TXdataFrontOPE		MEDIUMCONST    	ED75	0000	13
		_TXdataFrontCLO		MEDIUMCONST    	ED69	0000	13
		_octpowers     		MEDIUMCONST    	ECC1	0000	49
		i1_WriteEEPROM_		CODE           	0AA2	0000	57
		_Aux2OFF       		MEDIUMCONST    	ED99	0000	17
		_TXToiletAlexBa		MEDIUMCONST    	ED39	0000	13
		_TXdataD       		MEDIUMCONST    	EE39	0000	13
		i1_LCDPrintChar		CODE           	0F2E	0000	15
		_AuxON         		MEDIUMCONST    	EDC9	0000	17
		_hexpowers     		MEDIUMCONST    	ED19	0000	33
		i1_SendLCDbyte 		CODE           	1679A	0000	201
		i1_BufferCopy  		CODE           	16EBC	0000	167
		i1_cleanBuffer 		CODE           	097C	0000	63
		i1_GetMemoryPar		CODE           	0E46	0000	23
		i1_delayUS     		CODE           	0750	0000	79
		i1_ReadEEPROM_1		CODE           	0BA6	0000	51
		_fanOFF        		MEDIUMCONST    	EE19	0000	17
		i1_GetMemoryBau		CODE           	161A2	0000	239
		i1_GetMemoryLon		CODE           	15EC6	0000	251
		i1_PulseEnableP		CODE           	0C94	0000	47
		_TXdataF       		MEDIUMCONST    	EE51	0000	13

shared estimated size: 3065

ADC.c
		_InternalADC_Re		CODE           	17B86	0000	107
		_EnableInternal		CODE           	16E16	0000	167

ADC.c estimated size: 274

C:\Program Files (x86)\Microchip\xc8\v1.34\sources\common\awdiv.c
		___awdiv       		CODE           	16534	0000	209

C:\Program Files (x86)\Microchip\xc8\v1.34\sources\common\awdiv.c estimated size: 209

MISC.c
		_IsPrintableASC		CODE           	0E02	0000	25
		_StringContains		CODE           	174A8	0000	129
		_BufferCopy    		CODE           	169E6	0000	189
		_cleanBuffer   		CODE           	0608	0000	91
		_cleanBuffer16b		CODE           	054E	0000	95
		_GetEnteredNumb		CODE           	14B64	0000	471
		_delayUS       		CODE           	17AB0	0000	109
		_CheckSum_byte 		CODE           	17C56	0000	101
		_RemoveSpaces  		CODE           	17148	0000	155
		_ISNUMBER      		CODE           	0DCA	0000	31
		_StringAddEqual		CODE           	14D3A	0000	435
		_StringMatch   		CODE           	17528	0000	127
		_StartsWith    		CODE           	17278	0000	149
		_lowercase     		CODE           	1730C	0000	141

MISC.c estimated size: 2248

IR.c
		_UseIRCode     		CODE           	15CCE	0000	255
		_IRrawToNEC    		CODE           	140F0	0000	863
		_ReadIRpin     		CODE           	0EF6	0000	15
		_init_IR       		CODE           	0836	0000	73

IR.c estimated size: 1206

C:\Program Files (x86)\Microchip\xc8\v1.34\sources\common\lldiv.c
		___lldiv       		CODE           	16862	0000	199

C:\Program Files (x86)\Microchip\xc8\v1.34\sources\common\lldiv.c estimated size: 199

C:\Program Files (x86)\Microchip\xc8\v1.34\sources\common\aldiv.c
		___aldiv       		CODE           	1585A	0000	301

C:\Program Files (x86)\Microchip\xc8\v1.34\sources\common\aldiv.c estimated size: 301

user.c
		_InitApp       		CODE           	05AC	0000	93

user.c estimated size: 93

C:\Program Files (x86)\Microchip\xc8\v1.34\sources\common\doprnt.c
		_sprintf       		CODE           	1270C	0000	3231

C:\Program Files (x86)\Microchip\xc8\v1.34\sources\common\doprnt.c estimated size: 3231

C:\Program Files (x86)\Microchip\xc8\v1.34\sources\common\fttol.c
		___fttol       		CODE           	15488	0000	339

C:\Program Files (x86)\Microchip\xc8\v1.34\sources\common\fttol.c estimated size: 339

main.c
		_main          		CODE           	1387C	0000	1231

main.c estimated size: 1231

RTC.c
		_RTC_TIME_NONMi		CODE           	17B1C	0000	107
		_SET_RTC_TIME  		CODE           	1444E	0000	677
		_RTC_INIT      		CODE           	0EE6	0000	17
		_READ_RTC_TIME 		CODE           	16290	0000	235
		_Parse_Time    		CODE           	133AA	0000	1235
		_SprintDate    		CODE           	15FC0	0000	243
		_RTC_Clock_Enab		CODE           	079E	0000	77

RTC.c estimated size: 2591

C:\Program Files (x86)\Microchip\xc8\v1.34\sources\common\Umul16.c
		___wmul        		CODE           	0A6A	0000	57

C:\Program Files (x86)\Microchip\xc8\v1.34\sources\common\Umul16.c estimated size: 57

system.c
		_ConfigureOscil		CODE           	0F70	0000	9

system.c estimated size: 9

LCD.c
		_PulseEnablePin		CODE           	0B42	0000	51
		_LCD_Scroll    		CODE           	1497A	0000	491
		_SendLCDbyte   		CODE           	160B2	0000	241
		_LCDPrintChar  		CODE           	0E9C	0000	21
		_init_LCD      		CODE           	15986	0000	289
		_ClearLCD      		CODE           	0DE8	0000	27
		_LCDScreenUpdat		CODE           	13D4A	0000	935
		_SetLCDcursor  		CODE           	093E	0000	63
		_LCDPrintString		CODE           	1778E	0000	121
		_LCDdisplayFeed		CODE           	09F6	0000	61

LCD.c estimated size: 2300

